libproj.so.15 libproj15 #MINVER#
* Build-Depends-Package: libproj-dev
 _Z10pj_ell_setP9projCtx_tP8ARG_listPdS3_@Base 6.0.0
 _Z10pj_mkparamPKc@Base 6.0.0
 _Z10set_rtodmsii@Base 6.0.0
 _Z14proj_log_errorP8PJconstsPKcz@Base 6.0.0
 _Z15pj_param_existsP8ARG_listPKc@Base 6.0.0
 _Z16proj_context_setP8PJconstsP9projCtx_t@Base 6.0.0
 _Z16proj_coord_errorv@Base 6.0.0
 _Z17pj_get_datums_refv@Base 6.0.0
 _Z18pj_approx_2D_transP8PJconsts12PJ_DIRECTION8PJ_COORD@Base 6.0.0
 _Z18pj_approx_3D_transP8PJconsts12PJ_DIRECTION8PJ_COORD@Base 6.0.0
 _Z25pj_add_type_crs_if_neededRKNSt7__cxx1112basic_stringIcSt11char_traitsIcESaIcEEE@Base 6.0.0
 _Z31proj_context_delete_cpp_contextP14projCppContext@Base 6.0.0
 _Z6adjlond@Base 6.0.0
 _Z6dmstorPKcPPc@Base 6.0.0
 _Z6rtodmsPcdii@Base 6.0.0
 _Z7pj_atofPKc@Base 6.0.0
 _Z7pj_phi2P9projCtx_tdd@Base 6.0.0
 _Z8pj_chompPc@Base 6.0.0
 _Z8pj_paramP9projCtx_tP8ARG_listPKc@Base 6.0.0
 _Z9pj_shrinkPc@Base 6.0.0
 _ZN5osgeo4proj2cs10TemporalCSD0Ev@Base 6.0.0
 _ZN5osgeo4proj2cs10TemporalCSD1Ev@Base 6.0.0
 _ZN5osgeo4proj2cs10TemporalCSD2Ev@Base 6.0.0
 _ZN5osgeo4proj2cs10VerticalCS26createGravityRelatedHeightERKNS0_6common13UnitOfMeasureE@Base 6.0.0
 _ZN5osgeo4proj2cs10VerticalCS6createERKNS0_4util11PropertyMapERKN7dropbox6oxygen2nnISt10shared_ptrINS1_20CoordinateSystemAxisEEEE@Base 6.0.0
 _ZN5osgeo4proj2cs10VerticalCSD0Ev@Base 6.0.0
 _ZN5osgeo4proj2cs10VerticalCSD1Ev@Base 6.0.0
 _ZN5osgeo4proj2cs10VerticalCSD2Ev@Base 6.0.0
 _ZN5osgeo4proj2cs11CartesianCS16createGeocentricERKNS0_6common13UnitOfMeasureE@Base 6.0.0
 _ZN5osgeo4proj2cs11CartesianCS21createEastingNorthingERKNS0_6common13UnitOfMeasureE@Base 6.0.0
 _ZN5osgeo4proj2cs11CartesianCS21createNorthingEastingERKNS0_6common13UnitOfMeasureE@Base 6.0.0
 _ZN5osgeo4proj2cs11CartesianCS21createWestingSouthingERKNS0_6common13UnitOfMeasureE@Base 6.0.0
 _ZN5osgeo4proj2cs11CartesianCS40createNorthPoleEastingSouthNorthingSouthERKNS0_6common13UnitOfMeasureE@Base 6.0.0
 _ZN5osgeo4proj2cs11CartesianCS40createSouthPoleEastingNorthNorthingNorthERKNS0_6common13UnitOfMeasureE@Base 6.0.0
 _ZN5osgeo4proj2cs11CartesianCS6createERKNS0_4util11PropertyMapERKN7dropbox6oxygen2nnISt10shared_ptrINS1_20CoordinateSystemAxisEEEESF_@Base 6.0.0
 _ZN5osgeo4proj2cs11CartesianCS6createERKNS0_4util11PropertyMapERKN7dropbox6oxygen2nnISt10shared_ptrINS1_20CoordinateSystemAxisEEEESF_SF_@Base 6.0.0
 _ZN5osgeo4proj2cs11CartesianCSD0Ev@Base 6.0.0
 _ZN5osgeo4proj2cs11CartesianCSD1Ev@Base 6.0.0
 _ZN5osgeo4proj2cs11CartesianCSD2Ev@Base 6.0.0
 _ZN5osgeo4proj2cs11SphericalCS6createERKNS0_4util11PropertyMapERKN7dropbox6oxygen2nnISt10shared_ptrINS1_20CoordinateSystemAxisEEEESF_SF_@Base 6.0.0
 _ZN5osgeo4proj2cs11SphericalCSD0Ev@Base 6.0.0
 _ZN5osgeo4proj2cs11SphericalCSD1Ev@Base 6.0.0
 _ZN5osgeo4proj2cs11SphericalCSD2Ev@Base 6.0.0
 _ZN5osgeo4proj2cs12ParametricCS6createERKNS0_4util11PropertyMapERKN7dropbox6oxygen2nnISt10shared_ptrINS1_20CoordinateSystemAxisEEEE@Base 6.0.0
 _ZN5osgeo4proj2cs12ParametricCSD0Ev@Base 6.0.0
 _ZN5osgeo4proj2cs12ParametricCSD1Ev@Base 6.0.0
 _ZN5osgeo4proj2cs12ParametricCSD2Ev@Base 6.0.0
 _ZN5osgeo4proj2cs13AxisDirection10DISPLAY_UPE@Base 6.0.0
 _ZN5osgeo4proj2cs13AxisDirection10NORTH_EASTE@Base 6.0.0
 _ZN5osgeo4proj2cs13AxisDirection10NORTH_WESTE@Base 6.0.0
 _ZN5osgeo4proj2cs13AxisDirection10SOUTH_EASTE@Base 6.0.0
 _ZN5osgeo4proj2cs13AxisDirection10SOUTH_WESTE@Base 6.0.0
 _ZN5osgeo4proj2cs13AxisDirection11UNSPECIFIEDE@Base 6.0.0
 _ZN5osgeo4proj2cs13AxisDirection12DISPLAY_DOWNE@Base 6.0.0
 _ZN5osgeo4proj2cs13AxisDirection12DISPLAY_LEFTE@Base 6.0.0
 _ZN5osgeo4proj2cs13AxisDirection12GEOCENTRIC_XE@Base 6.0.0
 _ZN5osgeo4proj2cs13AxisDirection12GEOCENTRIC_YE@Base 6.0.0
 _ZN5osgeo4proj2cs13AxisDirection12GEOCENTRIC_ZE@Base 6.0.0
 _ZN5osgeo4proj2cs13AxisDirection12ROW_NEGATIVEE@Base 6.0.0
 _ZN5osgeo4proj2cs13AxisDirection12ROW_POSITIVEE@Base 6.0.0
 _ZN5osgeo4proj2cs13AxisDirection13DISPLAY_RIGHTE@Base 6.0.0
 _ZN5osgeo4proj2cs13AxisDirection15COLUMN_NEGATIVEE@Base 6.0.0
 _ZN5osgeo4proj2cs13AxisDirection15COLUMN_POSITIVEE@Base 6.0.0
 _ZN5osgeo4proj2cs13AxisDirection15EAST_NORTH_EASTE@Base 6.0.0
 _ZN5osgeo4proj2cs13AxisDirection15EAST_SOUTH_EASTE@Base 6.0.0
 _ZN5osgeo4proj2cs13AxisDirection15WEST_NORTH_WESTE@Base 6.0.0
 _ZN5osgeo4proj2cs13AxisDirection15WEST_SOUTH_WESTE@Base 6.0.0
 _ZN5osgeo4proj2cs13AxisDirection16NORTH_NORTH_EASTE@Base 6.0.0
 _ZN5osgeo4proj2cs13AxisDirection16NORTH_NORTH_WESTE@Base 6.0.0
 _ZN5osgeo4proj2cs13AxisDirection16SOUTH_SOUTH_EASTE@Base 6.0.0
 _ZN5osgeo4proj2cs13AxisDirection16SOUTH_SOUTH_WESTE@Base 6.0.0
 _ZN5osgeo4proj2cs13AxisDirection17COUNTER_CLOCKWISEE@Base 6.0.0
 _ZN5osgeo4proj2cs13AxisDirection2UPE@Base 6.0.0
 _ZN5osgeo4proj2cs13AxisDirection3AFTE@Base 6.0.0
 _ZN5osgeo4proj2cs13AxisDirection4DOWNE@Base 6.0.0
 _ZN5osgeo4proj2cs13AxisDirection4EASTE@Base 6.0.0
 _ZN5osgeo4proj2cs13AxisDirection4PASTE@Base 6.0.0
 _ZN5osgeo4proj2cs13AxisDirection4PORTE@Base 6.0.0
 _ZN5osgeo4proj2cs13AxisDirection4WESTE@Base 6.0.0
 _ZN5osgeo4proj2cs13AxisDirection5NORTHE@Base 6.0.0
 _ZN5osgeo4proj2cs13AxisDirection5SOUTHE@Base 6.0.0
 _ZN5osgeo4proj2cs13AxisDirection6FUTUREE@Base 6.0.0
 _ZN5osgeo4proj2cs13AxisDirection7FORWARDE@Base 6.0.0
 _ZN5osgeo4proj2cs13AxisDirection7TOWARDSE@Base 6.0.0
 _ZN5osgeo4proj2cs13AxisDirection7valueOfERKNSt7__cxx1112basic_stringIcSt11char_traitsIcESaIcEEE@Base 6.0.0
 _ZN5osgeo4proj2cs13AxisDirection9AWAY_FROME@Base 6.0.0
 _ZN5osgeo4proj2cs13AxisDirection9CLOCKWISEE@Base 6.0.0
 _ZN5osgeo4proj2cs13AxisDirection9STARBOARDE@Base 6.0.0
 _ZN5osgeo4proj2cs13EllipsoidalCS23createLatitudeLongitudeERKNS0_6common13UnitOfMeasureE@Base 6.0.0
 _ZN5osgeo4proj2cs13EllipsoidalCS23createLongitudeLatitudeERKNS0_6common13UnitOfMeasureE@Base 6.0.0
 _ZN5osgeo4proj2cs13EllipsoidalCS40createLatitudeLongitudeEllipsoidalHeightERKNS0_6common13UnitOfMeasureES6_@Base 6.0.0
 _ZN5osgeo4proj2cs13EllipsoidalCS40createLongitudeLatitudeEllipsoidalHeightERKNS0_6common13UnitOfMeasureES6_@Base 6.3.0
 _ZN5osgeo4proj2cs13EllipsoidalCS6createERKNS0_4util11PropertyMapERKN7dropbox6oxygen2nnISt10shared_ptrINS1_20CoordinateSystemAxisEEEESF_@Base 6.0.0
 _ZN5osgeo4proj2cs13EllipsoidalCS6createERKNS0_4util11PropertyMapERKN7dropbox6oxygen2nnISt10shared_ptrINS1_20CoordinateSystemAxisEEEESF_SF_@Base 6.0.0
 _ZN5osgeo4proj2cs13EllipsoidalCSD0Ev@Base 6.0.0
 _ZN5osgeo4proj2cs13EllipsoidalCSD1Ev@Base 6.0.0
 _ZN5osgeo4proj2cs13EllipsoidalCSD2Ev@Base 6.0.0
 _ZN5osgeo4proj2cs15TemporalCountCS6createERKNS0_4util11PropertyMapERKN7dropbox6oxygen2nnISt10shared_ptrINS1_20CoordinateSystemAxisEEEE@Base 6.0.0
 _ZN5osgeo4proj2cs15TemporalCountCSD0Ev@Base 6.0.0
 _ZN5osgeo4proj2cs15TemporalCountCSD1Ev@Base 6.0.0
 _ZN5osgeo4proj2cs15TemporalCountCSD2Ev@Base 6.0.0
 _ZN5osgeo4proj2cs16CoordinateSystemD0Ev@Base 6.0.0
 _ZN5osgeo4proj2cs16CoordinateSystemD1Ev@Base 6.0.0
 _ZN5osgeo4proj2cs16CoordinateSystemD2Ev@Base 6.0.0
 _ZN5osgeo4proj2cs17TemporalMeasureCS6createERKNS0_4util11PropertyMapERKN7dropbox6oxygen2nnISt10shared_ptrINS1_20CoordinateSystemAxisEEEE@Base 6.0.0
 _ZN5osgeo4proj2cs17TemporalMeasureCSD0Ev@Base 6.0.0
 _ZN5osgeo4proj2cs17TemporalMeasureCSD1Ev@Base 6.0.0
 _ZN5osgeo4proj2cs17TemporalMeasureCSD2Ev@Base 6.0.0
 _ZN5osgeo4proj2cs18DateTimeTemporalCS6createERKNS0_4util11PropertyMapERKN7dropbox6oxygen2nnISt10shared_ptrINS1_20CoordinateSystemAxisEEEE@Base 6.0.0
 _ZN5osgeo4proj2cs18DateTimeTemporalCSD0Ev@Base 6.0.0
 _ZN5osgeo4proj2cs18DateTimeTemporalCSD1Ev@Base 6.0.0
 _ZN5osgeo4proj2cs18DateTimeTemporalCSD2Ev@Base 6.0.0
 _ZN5osgeo4proj2cs20CoordinateSystemAxis6createERKNS0_4util11PropertyMapERKNSt7__cxx1112basic_stringIcSt11char_traitsIcESaIcEEERKNS1_13AxisDirectionERKNS0_6common13UnitOfMeasureERKSt10shared_ptrINS1_8MeridianEE@Base 6.0.0
 _ZN5osgeo4proj2cs20CoordinateSystemAxisD0Ev@Base 6.0.0
 _ZN5osgeo4proj2cs20CoordinateSystemAxisD1Ev@Base 6.0.0
 _ZN5osgeo4proj2cs20CoordinateSystemAxisD2Ev@Base 6.0.0
 _ZN5osgeo4proj2cs8Meridian6createERKNS0_6common5AngleE@Base 6.0.0
 _ZN5osgeo4proj2cs8MeridianD0Ev@Base 6.0.0
 _ZN5osgeo4proj2cs8MeridianD1Ev@Base 6.0.0
 _ZN5osgeo4proj2cs8MeridianD2Ev@Base 6.0.0
 _ZN5osgeo4proj2cs9OrdinalCS6createERKNS0_4util11PropertyMapERKSt6vectorIN7dropbox6oxygen2nnISt10shared_ptrINS1_20CoordinateSystemAxisEEEESaISE_EE@Base 6.0.0
 _ZN5osgeo4proj2cs9OrdinalCSD0Ev@Base 6.0.0
 _ZN5osgeo4proj2cs9OrdinalCSD1Ev@Base 6.0.0
 _ZN5osgeo4proj2cs9OrdinalCSD2Ev@Base 6.0.0
 _ZN5osgeo4proj2io12WKTFormatter11setOutputIdEb@Base 6.0.0
 _ZN5osgeo4proj2io12WKTFormatter12setMultiLineEb@Base 6.0.0
 _ZN5osgeo4proj2io12WKTFormatter13setOutputAxisENS2_14OutputAxisRuleE@Base 6.0.0
 _ZN5osgeo4proj2io12WKTFormatter17simulCurNodeHasIdEv@Base 6.0.0
 _ZN5osgeo4proj2io12WKTFormatter19setIndentationWidthEi@Base 6.0.0
 _ZN5osgeo4proj2io12WKTFormatter6createENS2_10ConventionESt10shared_ptrINS1_15DatabaseContextEE@Base 6.0.0
 _ZN5osgeo4proj2io12WKTFormatter6createERKN7dropbox6oxygen2nnISt10unique_ptrIS2_St14default_deleteIS2_EEEE@Base 6.0.0
 _ZN5osgeo4proj2io12WKTFormatter9setStrictEb@Base 6.0.0
 _ZN5osgeo4proj2io12WKTFormatterD1Ev@Base 6.0.0
 _ZN5osgeo4proj2io12WKTFormatterD2Ev@Base 6.0.0
 _ZN5osgeo4proj2io13JSONFormatter12setMultiLineEb@Base 6.2.0
 _ZN5osgeo4proj2io13JSONFormatter13ObjectContextC1ERS2_PKcb@Base 6.2.0
 _ZN5osgeo4proj2io13JSONFormatter13ObjectContextC2ERS2_PKcb@Base 6.2.0
 _ZN5osgeo4proj2io13JSONFormatter13ObjectContextD1Ev@Base 6.2.0
 _ZN5osgeo4proj2io13JSONFormatter13ObjectContextD2Ev@Base 6.2.0
 _ZN5osgeo4proj2io13JSONFormatter19setIndentationWidthEi@Base 6.2.0
 _ZN5osgeo4proj2io13JSONFormatter6createESt10shared_ptrINS1_15DatabaseContextEE@Base 6.2.0
 _ZN5osgeo4proj2io13JSONFormatter9setSchemaERKNSt7__cxx1112basic_stringIcSt11char_traitsIcESaIcEEE@Base 6.2.0
 _ZN5osgeo4proj2io13JSONFormatterD1Ev@Base 6.2.0
 _ZN5osgeo4proj2io13JSONFormatterD2Ev@Base 6.2.0
 _ZN5osgeo4proj2io14IWKTExportableD0Ev@Base 6.0.0
 _ZN5osgeo4proj2io14IWKTExportableD1Ev@Base 6.0.0
 _ZN5osgeo4proj2io14IWKTExportableD2Ev@Base 6.0.0
 _ZN5osgeo4proj2io15DatabaseContext6createEPv@Base 6.0.0
 _ZN5osgeo4proj2io15DatabaseContext6createERKNSt7__cxx1112basic_stringIcSt11char_traitsIcESaIcEEERKSt6vectorIS8_SaIS8_EEP9projCtx_t@Base 6.0.0
 _ZN5osgeo4proj2io15DatabaseContextD1Ev@Base 6.0.0
 _ZN5osgeo4proj2io15DatabaseContextD2Ev@Base 6.0.0
 _ZN5osgeo4proj2io15IJSONExportableD0Ev@Base 6.2.0
 _ZN5osgeo4proj2io15IJSONExportableD1Ev@Base 6.2.0
 _ZN5osgeo4proj2io15IJSONExportableD2Ev@Base 6.2.0
 _ZN5osgeo4proj2io16AuthorityFactory6createERKN7dropbox6oxygen2nnISt10shared_ptrINS1_15DatabaseContextEEEERKNSt7__cxx1112basic_stringIcSt11char_traitsIcESaIcEEE@Base 6.0.0
 _ZN5osgeo4proj2io16AuthorityFactory7CRSInfoC1Ev@Base 6.1.0
 _ZN5osgeo4proj2io16AuthorityFactory7CRSInfoC2Ev@Base 6.1.0
 _ZN5osgeo4proj2io16AuthorityFactoryD1Ev@Base 6.0.0
 _ZN5osgeo4proj2io16AuthorityFactoryD2Ev@Base 6.0.0
 _ZN5osgeo4proj2io16FactoryExceptionC1EPKc@Base 6.0.0
 _ZN5osgeo4proj2io16FactoryExceptionC1ERKNSt7__cxx1112basic_stringIcSt11char_traitsIcESaIcEEE@Base 6.0.0
 _ZN5osgeo4proj2io16FactoryExceptionC1ERKS2_@Base 6.0.0
 _ZN5osgeo4proj2io16FactoryExceptionC2EPKc@Base 6.0.0
 _ZN5osgeo4proj2io16FactoryExceptionC2ERKNSt7__cxx1112basic_stringIcSt11char_traitsIcESaIcEEE@Base 6.0.0
 _ZN5osgeo4proj2io16FactoryExceptionC2ERKS2_@Base 6.0.0
 _ZN5osgeo4proj2io16FactoryExceptionD0Ev@Base 6.0.0
 _ZN5osgeo4proj2io16FactoryExceptionD1Ev@Base 6.0.0
 _ZN5osgeo4proj2io16FactoryExceptionD2Ev@Base 6.0.0
 _ZN5osgeo4proj2io16PROJStringParser13attachContextEP9projCtx_t@Base 6.0.0
 _ZN5osgeo4proj2io16PROJStringParser20createFromPROJStringERKNSt7__cxx1112basic_stringIcSt11char_traitsIcESaIcEEE@Base 6.0.0
 _ZN5osgeo4proj2io16PROJStringParser20setUsePROJ4InitRulesEb@Base 6.0.0
 _ZN5osgeo4proj2io16PROJStringParser21attachDatabaseContextERKSt10shared_ptrINS1_15DatabaseContextEE@Base 6.0.0
 _ZN5osgeo4proj2io16PROJStringParserC1Ev@Base 6.0.0
 _ZN5osgeo4proj2io16PROJStringParserC2Ev@Base 6.0.0
 _ZN5osgeo4proj2io16PROJStringParserD1Ev@Base 6.0.0
 _ZN5osgeo4proj2io16PROJStringParserD2Ev@Base 6.0.0
 _ZN5osgeo4proj2io16ParsingExceptionC1ERKS2_@Base 6.0.0
 _ZN5osgeo4proj2io16ParsingExceptionC2ERKS2_@Base 6.0.0
 _ZN5osgeo4proj2io16ParsingExceptionD0Ev@Base 6.0.0
 _ZN5osgeo4proj2io16ParsingExceptionD1Ev@Base 6.0.0
 _ZN5osgeo4proj2io16ParsingExceptionD2Ev@Base 6.0.0
 _ZN5osgeo4proj2io19FormattingExceptionC1ERKS2_@Base 6.0.0
 _ZN5osgeo4proj2io19FormattingExceptionC2ERKS2_@Base 6.0.0
 _ZN5osgeo4proj2io19FormattingExceptionD0Ev@Base 6.0.0
 _ZN5osgeo4proj2io19FormattingExceptionD1Ev@Base 6.0.0
 _ZN5osgeo4proj2io19FormattingExceptionD2Ev@Base 6.0.0
 _ZN5osgeo4proj2io19PROJStringFormatter12setCRSExportEb@Base 6.0.0
 _ZN5osgeo4proj2io19PROJStringFormatter13stopInversionEv@Base 6.0.0
 _ZN5osgeo4proj2io19PROJStringFormatter14startInversionEv@Base 6.0.0
 _ZN5osgeo4proj2io19PROJStringFormatter16ingestPROJStringERKNSt7__cxx1112basic_stringIcSt11char_traitsIcESaIcEEE@Base 6.0.0
 _ZN5osgeo4proj2io19PROJStringFormatter17setUseApproxTMercEb@Base 6.0.0
 _ZN5osgeo4proj2io19PROJStringFormatter22setCurrentStepInvertedEb@Base 6.0.0
 _ZN5osgeo4proj2io19PROJStringFormatter6createENS2_10ConventionESt10shared_ptrINS1_15DatabaseContextEE@Base 6.0.0
 _ZN5osgeo4proj2io19PROJStringFormatter7addStepEPKc@Base 6.0.0
 _ZN5osgeo4proj2io19PROJStringFormatter7addStepERKNSt7__cxx1112basic_stringIcSt11char_traitsIcESaIcEEE@Base 6.0.0
 _ZN5osgeo4proj2io19PROJStringFormatter8addParamEPKcRKNSt7__cxx1112basic_stringIcSt11char_traitsIcESaIcEEE@Base 6.0.0
 _ZN5osgeo4proj2io19PROJStringFormatter8addParamEPKcRKSt6vectorIdSaIdEE@Base 6.0.0
 _ZN5osgeo4proj2io19PROJStringFormatter8addParamEPKcS4_@Base 6.0.0
 _ZN5osgeo4proj2io19PROJStringFormatter8addParamEPKcd@Base 6.0.0
 _ZN5osgeo4proj2io19PROJStringFormatter8addParamEPKci@Base 6.0.0
 _ZN5osgeo4proj2io19PROJStringFormatter8addParamERKNSt7__cxx1112basic_stringIcSt11char_traitsIcESaIcEEE@Base 6.0.0
 _ZN5osgeo4proj2io19PROJStringFormatter8addParamERKNSt7__cxx1112basic_stringIcSt11char_traitsIcESaIcEEEPKc@Base 6.0.0
 _ZN5osgeo4proj2io19PROJStringFormatter8addParamERKNSt7__cxx1112basic_stringIcSt11char_traitsIcESaIcEEESA_@Base 6.0.0
 _ZN5osgeo4proj2io19PROJStringFormatter8addParamERKNSt7__cxx1112basic_stringIcSt11char_traitsIcESaIcEEEd@Base 6.0.0
 _ZN5osgeo4proj2io19PROJStringFormatter8addParamERKNSt7__cxx1112basic_stringIcSt11char_traitsIcESaIcEEEi@Base 6.0.0
 _ZN5osgeo4proj2io19PROJStringFormatterD1Ev@Base 6.0.0
 _ZN5osgeo4proj2io19PROJStringFormatterD2Ev@Base 6.0.0
 _ZN5osgeo4proj2io19createFromUserInputERKNSt7__cxx1112basic_stringIcSt11char_traitsIcESaIcEEEP9projCtx_t@Base 6.0.0
 _ZN5osgeo4proj2io19createFromUserInputERKNSt7__cxx1112basic_stringIcSt11char_traitsIcESaIcEEERKSt10shared_ptrINS1_15DatabaseContextEEb@Base 6.0.0
 _ZN5osgeo4proj2io21IPROJStringExportableD0Ev@Base 6.0.0
 _ZN5osgeo4proj2io21IPROJStringExportableD1Ev@Base 6.0.0
 _ZN5osgeo4proj2io21IPROJStringExportableD2Ev@Base 6.0.0
 _ZN5osgeo4proj2io28NoSuchAuthorityCodeExceptionC1ERKNSt7__cxx1112basic_stringIcSt11char_traitsIcESaIcEEESA_SA_@Base 6.0.0
 _ZN5osgeo4proj2io28NoSuchAuthorityCodeExceptionC1ERKS2_@Base 6.0.0
 _ZN5osgeo4proj2io28NoSuchAuthorityCodeExceptionC2ERKNSt7__cxx1112basic_stringIcSt11char_traitsIcESaIcEEESA_SA_@Base 6.0.0
 _ZN5osgeo4proj2io28NoSuchAuthorityCodeExceptionC2ERKS2_@Base 6.0.0
 _ZN5osgeo4proj2io28NoSuchAuthorityCodeExceptionD0Ev@Base 6.0.0
 _ZN5osgeo4proj2io28NoSuchAuthorityCodeExceptionD1Ev@Base 6.0.0
 _ZN5osgeo4proj2io28NoSuchAuthorityCodeExceptionD2Ev@Base 6.0.0
 _ZN5osgeo4proj2io7WKTNode10createFromERKNSt7__cxx1112basic_stringIcSt11char_traitsIcESaIcEEEm@Base 6.2.0
 _ZN5osgeo4proj2io7WKTNode8addChildEON7dropbox6oxygen2nnISt10unique_ptrIS2_St14default_deleteIS2_EEEE@Base 6.0.0
 _ZN5osgeo4proj2io7WKTNodeC1ERKNSt7__cxx1112basic_stringIcSt11char_traitsIcESaIcEEE@Base 6.0.0
 _ZN5osgeo4proj2io7WKTNodeC2ERKNSt7__cxx1112basic_stringIcSt11char_traitsIcESaIcEEE@Base 6.0.0
 _ZN5osgeo4proj2io7WKTNodeD1Ev@Base 6.0.0
 _ZN5osgeo4proj2io7WKTNodeD2Ev@Base 6.0.0
 _ZN5osgeo4proj2io9WKTParser12guessDialectERKNSt7__cxx1112basic_stringIcSt11char_traitsIcESaIcEEE@Base 6.0.0
 _ZN5osgeo4proj2io9WKTParser13createFromWKTERKNSt7__cxx1112basic_stringIcSt11char_traitsIcESaIcEEE@Base 6.0.0
 _ZN5osgeo4proj2io9WKTParser21attachDatabaseContextERKSt10shared_ptrINS1_15DatabaseContextEE@Base 6.0.0
 _ZN5osgeo4proj2io9WKTParser9setStrictEb@Base 6.0.0
 _ZN5osgeo4proj2io9WKTParserC1Ev@Base 6.0.0
 _ZN5osgeo4proj2io9WKTParserC2Ev@Base 6.0.0
 _ZN5osgeo4proj2io9WKTParserD1Ev@Base 6.0.0
 _ZN5osgeo4proj2io9WKTParserD2Ev@Base 6.0.0
 _ZN5osgeo4proj3crs10DerivedCRSD0Ev@Base 6.0.0
 _ZN5osgeo4proj3crs10DerivedCRSD1Ev@Base 6.0.0
 _ZN5osgeo4proj3crs10DerivedCRSD2Ev@Base 6.0.0
 _ZN5osgeo4proj3crs11CompoundCRS6createERKNS0_4util11PropertyMapERKSt6vectorIN7dropbox6oxygen2nnISt10shared_ptrINS1_3CRSEEEESaISE_EE@Base 6.0.0
 _ZN5osgeo4proj3crs11CompoundCRSD0Ev@Base 6.0.0
 _ZN5osgeo4proj3crs11CompoundCRSD1Ev@Base 6.0.0
 _ZN5osgeo4proj3crs11CompoundCRSD2Ev@Base 6.0.0
 _ZN5osgeo4proj3crs11GeodeticCRS6createERKNS0_4util11PropertyMapERKN7dropbox6oxygen2nnISt10shared_ptrINS0_5datum22GeodeticReferenceFrameEEEERKNS9_ISA_INS0_2cs11CartesianCSEEEE@Base 6.0.0
 _ZN5osgeo4proj3crs11GeodeticCRS6createERKNS0_4util11PropertyMapERKN7dropbox6oxygen2nnISt10shared_ptrINS0_5datum22GeodeticReferenceFrameEEEERKNS9_ISA_INS0_2cs11SphericalCSEEEE@Base 6.0.0
 _ZN5osgeo4proj3crs11GeodeticCRS6createERKNS0_4util11PropertyMapERKSt10shared_ptrINS0_5datum22GeodeticReferenceFrameEERKS7_INS8_13DatumEnsembleEERKN7dropbox6oxygen2nnIS7_INS0_2cs11CartesianCSEEEE@Base 6.0.0
 _ZN5osgeo4proj3crs11GeodeticCRS6createERKNS0_4util11PropertyMapERKSt10shared_ptrINS0_5datum22GeodeticReferenceFrameEERKS7_INS8_13DatumEnsembleEERKN7dropbox6oxygen2nnIS7_INS0_2cs11SphericalCSEEEE@Base 6.0.0
 _ZN5osgeo4proj3crs11GeodeticCRS9EPSG_4978E@Base 6.0.0
 _ZN5osgeo4proj3crs11GeodeticCRSD0Ev@Base 6.0.0
 _ZN5osgeo4proj3crs11GeodeticCRSD1Ev@Base 6.0.0
 _ZN5osgeo4proj3crs11GeodeticCRSD2Ev@Base 6.0.0
 _ZN5osgeo4proj3crs11TemporalCRS6createERKNS0_4util11PropertyMapERKN7dropbox6oxygen2nnISt10shared_ptrINS0_5datum13TemporalDatumEEEERKNS9_ISA_INS0_2cs10TemporalCSEEEE@Base 6.0.0
 _ZN5osgeo4proj3crs11TemporalCRSD0Ev@Base 6.0.0
 _ZN5osgeo4proj3crs11TemporalCRSD1Ev@Base 6.0.0
 _ZN5osgeo4proj3crs11TemporalCRSD2Ev@Base 6.0.0
 _ZN5osgeo4proj3crs11VerticalCRS6createERKNS0_4util11PropertyMapERKN7dropbox6oxygen2nnISt10shared_ptrINS0_5datum22VerticalReferenceFrameEEEERKNS9_ISA_INS0_2cs10VerticalCSEEEE@Base 6.0.0
 _ZN5osgeo4proj3crs11VerticalCRS6createERKNS0_4util11PropertyMapERKSt10shared_ptrINS0_5datum22VerticalReferenceFrameEERKS7_INS8_13DatumEnsembleEERKN7dropbox6oxygen2nnIS7_INS0_2cs10VerticalCSEEEE@Base 6.0.0
 _ZN5osgeo4proj3crs11VerticalCRSD0Ev@Base 6.0.0
 _ZN5osgeo4proj3crs11VerticalCRSD1Ev@Base 6.0.0
 _ZN5osgeo4proj3crs11VerticalCRSD2Ev@Base 6.0.0
 _ZN5osgeo4proj3crs12ProjectedCRS6createERKNS0_4util11PropertyMapERKN7dropbox6oxygen2nnISt10shared_ptrINS1_11GeodeticCRSEEEERKNS9_ISA_INS0_9operation10ConversionEEEERKNS9_ISA_INS0_2cs11CartesianCSEEEE@Base 6.0.0
 _ZN5osgeo4proj3crs12ProjectedCRSD0Ev@Base 6.0.0
 _ZN5osgeo4proj3crs12ProjectedCRSD1Ev@Base 6.0.0
 _ZN5osgeo4proj3crs12ProjectedCRSD2Ev@Base 6.0.0
 _ZN5osgeo4proj3crs13GeographicCRS6createERKNS0_4util11PropertyMapERKN7dropbox6oxygen2nnISt10shared_ptrINS0_5datum22GeodeticReferenceFrameEEEERKNS9_ISA_INS0_2cs13EllipsoidalCSEEEE@Base 6.0.0
 _ZN5osgeo4proj3crs13GeographicCRS6createERKNS0_4util11PropertyMapERKSt10shared_ptrINS0_5datum22GeodeticReferenceFrameEERKS7_INS8_13DatumEnsembleEERKN7dropbox6oxygen2nnIS7_INS0_2cs13EllipsoidalCSEEEE@Base 6.0.0
 _ZN5osgeo4proj3crs13GeographicCRS9EPSG_4267E@Base 6.0.0
 _ZN5osgeo4proj3crs13GeographicCRS9EPSG_4269E@Base 6.0.0
 _ZN5osgeo4proj3crs13GeographicCRS9EPSG_4326E@Base 6.0.0
 _ZN5osgeo4proj3crs13GeographicCRS9EPSG_4807E@Base 6.0.0
 _ZN5osgeo4proj3crs13GeographicCRS9EPSG_4979E@Base 6.0.0
 _ZN5osgeo4proj3crs13GeographicCRS9OGC_CRS84E@Base 6.0.0
 _ZN5osgeo4proj3crs13GeographicCRSD0Ev@Base 6.0.0
 _ZN5osgeo4proj3crs13GeographicCRSD1Ev@Base 6.0.0
 _ZN5osgeo4proj3crs13GeographicCRSD2Ev@Base 6.0.0
 _ZN5osgeo4proj3crs13ParametricCRS6createERKNS0_4util11PropertyMapERKN7dropbox6oxygen2nnISt10shared_ptrINS0_5datum15ParametricDatumEEEERKNS9_ISA_INS0_2cs12ParametricCSEEEE@Base 6.0.0
 _ZN5osgeo4proj3crs13ParametricCRSD0Ev@Base 6.0.0
 _ZN5osgeo4proj3crs13ParametricCRSD1Ev@Base 6.0.0
 _ZN5osgeo4proj3crs13ParametricCRSD2Ev@Base 6.0.0
 _ZN5osgeo4proj3crs14EngineeringCRS6createERKNS0_4util11PropertyMapERKN7dropbox6oxygen2nnISt10shared_ptrINS0_5datum16EngineeringDatumEEEERKNS9_ISA_INS0_2cs16CoordinateSystemEEEE@Base 6.0.0
 _ZN5osgeo4proj3crs14EngineeringCRSD0Ev@Base 6.0.0
 _ZN5osgeo4proj3crs14EngineeringCRSD1Ev@Base 6.0.0
 _ZN5osgeo4proj3crs14EngineeringCRSD2Ev@Base 6.0.0
 _ZN5osgeo4proj3crs18DerivedCRSTemplateINS1_24DerivedTemporalCRSTraitsEE6createERKNS0_4util11PropertyMapERKN7dropbox6oxygen2nnISt10shared_ptrINS1_11TemporalCRSEEEERKNSB_ISC_INS0_9operation10ConversionEEEERKNSB_ISC_INS0_2cs10TemporalCSEEEE@Base 6.0.0
 _ZN5osgeo4proj3crs18DerivedCRSTemplateINS1_24DerivedTemporalCRSTraitsEED0Ev@Base 6.0.0
 _ZN5osgeo4proj3crs18DerivedCRSTemplateINS1_24DerivedTemporalCRSTraitsEED1Ev@Base 6.0.0
 _ZN5osgeo4proj3crs18DerivedCRSTemplateINS1_24DerivedTemporalCRSTraitsEED2Ev@Base 6.0.0
 _ZN5osgeo4proj3crs18DerivedCRSTemplateINS1_26DerivedParametricCRSTraitsEE6createERKNS0_4util11PropertyMapERKN7dropbox6oxygen2nnISt10shared_ptrINS1_13ParametricCRSEEEERKNSB_ISC_INS0_9operation10ConversionEEEERKNSB_ISC_INS0_2cs12ParametricCSEEEE@Base 6.0.0
 _ZN5osgeo4proj3crs18DerivedCRSTemplateINS1_26DerivedParametricCRSTraitsEED0Ev@Base 6.0.0
 _ZN5osgeo4proj3crs18DerivedCRSTemplateINS1_26DerivedParametricCRSTraitsEED1Ev@Base 6.0.0
 _ZN5osgeo4proj3crs18DerivedCRSTemplateINS1_26DerivedParametricCRSTraitsEED2Ev@Base 6.0.0
 _ZN5osgeo4proj3crs18DerivedCRSTemplateINS1_27DerivedEngineeringCRSTraitsEE6createERKNS0_4util11PropertyMapERKN7dropbox6oxygen2nnISt10shared_ptrINS1_14EngineeringCRSEEEERKNSB_ISC_INS0_9operation10ConversionEEEERKNSB_ISC_INS0_2cs16CoordinateSystemEEEE@Base 6.0.0
 _ZN5osgeo4proj3crs18DerivedCRSTemplateINS1_27DerivedEngineeringCRSTraitsEED0Ev@Base 6.0.0
 _ZN5osgeo4proj3crs18DerivedCRSTemplateINS1_27DerivedEngineeringCRSTraitsEED1Ev@Base 6.0.0
 _ZN5osgeo4proj3crs18DerivedCRSTemplateINS1_27DerivedEngineeringCRSTraitsEED2Ev@Base 6.0.0
 _ZN5osgeo4proj3crs18DerivedGeodeticCRS6createERKNS0_4util11PropertyMapERKN7dropbox6oxygen2nnISt10shared_ptrINS1_11GeodeticCRSEEEERKNS9_ISA_INS0_9operation10ConversionEEEERKNS9_ISA_INS0_2cs11CartesianCSEEEE@Base 6.0.0
 _ZN5osgeo4proj3crs18DerivedGeodeticCRS6createERKNS0_4util11PropertyMapERKN7dropbox6oxygen2nnISt10shared_ptrINS1_11GeodeticCRSEEEERKNS9_ISA_INS0_9operation10ConversionEEEERKNS9_ISA_INS0_2cs11SphericalCSEEEE@Base 6.0.0
 _ZN5osgeo4proj3crs18DerivedGeodeticCRSD0Ev@Base 6.0.0
 _ZN5osgeo4proj3crs18DerivedGeodeticCRSD1Ev@Base 6.0.0
 _ZN5osgeo4proj3crs18DerivedGeodeticCRSD2Ev@Base 6.0.0
 _ZN5osgeo4proj3crs18DerivedVerticalCRS6createERKNS0_4util11PropertyMapERKN7dropbox6oxygen2nnISt10shared_ptrINS1_11VerticalCRSEEEERKNS9_ISA_INS0_9operation10ConversionEEEERKNS9_ISA_INS0_2cs10VerticalCSEEEE@Base 6.0.0
 _ZN5osgeo4proj3crs18DerivedVerticalCRSD0Ev@Base 6.0.0
 _ZN5osgeo4proj3crs18DerivedVerticalCRSD1Ev@Base 6.0.0
 _ZN5osgeo4proj3crs18DerivedVerticalCRSD2Ev@Base 6.0.0
 _ZN5osgeo4proj3crs19DerivedProjectedCRS6createERKNS0_4util11PropertyMapERKN7dropbox6oxygen2nnISt10shared_ptrINS1_12ProjectedCRSEEEERKNS9_ISA_INS0_9operation10ConversionEEEERKNS9_ISA_INS0_2cs16CoordinateSystemEEEE@Base 6.0.0
 _ZN5osgeo4proj3crs19DerivedProjectedCRSD0Ev@Base 6.0.0
 _ZN5osgeo4proj3crs19DerivedProjectedCRSD1Ev@Base 6.0.0
 _ZN5osgeo4proj3crs19DerivedProjectedCRSD2Ev@Base 6.0.0
 _ZN5osgeo4proj3crs20DerivedGeographicCRS6createERKNS0_4util11PropertyMapERKN7dropbox6oxygen2nnISt10shared_ptrINS1_11GeodeticCRSEEEERKNS9_ISA_INS0_9operation10ConversionEEEERKNS9_ISA_INS0_2cs13EllipsoidalCSEEEE@Base 6.0.0
 _ZN5osgeo4proj3crs20DerivedGeographicCRSD0Ev@Base 6.0.0
 _ZN5osgeo4proj3crs20DerivedGeographicCRSD1Ev@Base 6.0.0
 _ZN5osgeo4proj3crs20DerivedGeographicCRSD2Ev@Base 6.0.0
 _ZN5osgeo4proj3crs3CRSD0Ev@Base 6.0.0
 _ZN5osgeo4proj3crs3CRSD1Ev@Base 6.0.0
 _ZN5osgeo4proj3crs3CRSD2Ev@Base 6.0.0
 _ZN5osgeo4proj3crs8BoundCRS17createFromTOWGS84ERKN7dropbox6oxygen2nnISt10shared_ptrINS1_3CRSEEEERKSt6vectorIdSaIdEE@Base 6.0.0
 _ZN5osgeo4proj3crs8BoundCRS18createFromNadgridsERKN7dropbox6oxygen2nnISt10shared_ptrINS1_3CRSEEEERKNSt7__cxx1112basic_stringIcSt11char_traitsIcESaIcEEE@Base 6.0.0
 _ZN5osgeo4proj3crs8BoundCRS6createERKN7dropbox6oxygen2nnISt10shared_ptrINS1_3CRSEEEESB_RKNS5_IS6_INS0_9operation14TransformationEEEE@Base 6.0.0
 _ZN5osgeo4proj3crs8BoundCRSD0Ev@Base 6.0.0
 _ZN5osgeo4proj3crs8BoundCRSD1Ev@Base 6.0.0
 _ZN5osgeo4proj3crs8BoundCRSD2Ev@Base 6.0.0
 _ZN5osgeo4proj3crs9SingleCRSD0Ev@Base 6.0.0
 _ZN5osgeo4proj3crs9SingleCRSD1Ev@Base 6.0.0
 _ZN5osgeo4proj3crs9SingleCRSD2Ev@Base 6.0.0
 _ZN5osgeo4proj4util10BaseObjectD0Ev@Base 6.0.0
 _ZN5osgeo4proj4util10BaseObjectD1Ev@Base 6.0.0
 _ZN5osgeo4proj4util10BaseObjectD2Ev@Base 6.0.0
 _ZN5osgeo4proj4util10BoxedValueC1EPKc@Base 6.0.0
 _ZN5osgeo4proj4util10BoxedValueC1ERKNSt7__cxx1112basic_stringIcSt11char_traitsIcESaIcEEE@Base 6.0.0
 _ZN5osgeo4proj4util10BoxedValueC1Eb@Base 6.0.0
 _ZN5osgeo4proj4util10BoxedValueC1Ei@Base 6.0.0
 _ZN5osgeo4proj4util10BoxedValueC2EPKc@Base 6.0.0
 _ZN5osgeo4proj4util10BoxedValueC2ERKNSt7__cxx1112basic_stringIcSt11char_traitsIcESaIcEEE@Base 6.0.0
 _ZN5osgeo4proj4util10BoxedValueC2Eb@Base 6.0.0
 _ZN5osgeo4proj4util10BoxedValueC2Ei@Base 6.0.0
 _ZN5osgeo4proj4util10BoxedValueD0Ev@Base 6.0.0
 _ZN5osgeo4proj4util10BoxedValueD1Ev@Base 6.0.0
 _ZN5osgeo4proj4util10BoxedValueD2Ev@Base 6.0.0
 _ZN5osgeo4proj4util11GenericNameD0Ev@Base 6.0.0
 _ZN5osgeo4proj4util11GenericNameD1Ev@Base 6.0.0
 _ZN5osgeo4proj4util11GenericNameD2Ev@Base 6.0.0
 _ZN5osgeo4proj4util11IComparableD0Ev@Base 6.0.0
 _ZN5osgeo4proj4util11IComparableD1Ev@Base 6.0.0
 _ZN5osgeo4proj4util11IComparableD2Ev@Base 6.0.0
 _ZN5osgeo4proj4util11NameFactory15createLocalNameERKSt10shared_ptrINS1_9NameSpaceEERKNSt7__cxx1112basic_stringIcSt11char_traitsIcESaIcEEE@Base 6.0.0
 _ZN5osgeo4proj4util11NameFactory15createNameSpaceERKN7dropbox6oxygen2nnISt10shared_ptrINS1_11GenericNameEEEERKNS1_11PropertyMapE@Base 6.0.0
 _ZN5osgeo4proj4util11NameFactory17createGenericNameERKSt10shared_ptrINS1_9NameSpaceEERKSt6vectorINSt7__cxx1112basic_stringIcSt11char_traitsIcESaIcEEESaISE_EE@Base 6.0.0
 _ZN5osgeo4proj4util11PropertyMap3setERKNSt7__cxx1112basic_stringIcSt11char_traitsIcESaIcEEEPKc@Base 6.0.0
 _ZN5osgeo4proj4util11PropertyMap3setERKNSt7__cxx1112basic_stringIcSt11char_traitsIcESaIcEEERKNS1_15BaseObjectNNPtrE@Base 6.0.0
 _ZN5osgeo4proj4util11PropertyMap3setERKNSt7__cxx1112basic_stringIcSt11char_traitsIcESaIcEEERKSt6vectorIS8_SaIS8_EE@Base 6.0.0
 _ZN5osgeo4proj4util11PropertyMap3setERKNSt7__cxx1112basic_stringIcSt11char_traitsIcESaIcEEESA_@Base 6.0.0
 _ZN5osgeo4proj4util11PropertyMap3setERKNSt7__cxx1112basic_stringIcSt11char_traitsIcESaIcEEEb@Base 6.0.0
 _ZN5osgeo4proj4util11PropertyMap3setERKNSt7__cxx1112basic_stringIcSt11char_traitsIcESaIcEEEi@Base 6.0.0
 _ZN5osgeo4proj4util11PropertyMapC1ERKS2_@Base 6.0.0
 _ZN5osgeo4proj4util11PropertyMapC1Ev@Base 6.0.0
 _ZN5osgeo4proj4util11PropertyMapC2ERKS2_@Base 6.0.0
 _ZN5osgeo4proj4util11PropertyMapC2Ev@Base 6.0.0
 _ZN5osgeo4proj4util11PropertyMapD1Ev@Base 6.0.0
 _ZN5osgeo4proj4util11PropertyMapD2Ev@Base 6.0.0
 _ZN5osgeo4proj4util15BaseObjectNNPtrD1Ev@Base 6.0.0
 _ZN5osgeo4proj4util15BaseObjectNNPtrD2Ev@Base 6.0.0
 _ZN5osgeo4proj4util17ArrayOfBaseObject3addERKNS1_15BaseObjectNNPtrE@Base 6.0.0
 _ZN5osgeo4proj4util17ArrayOfBaseObject6createEv@Base 6.0.0
 _ZN5osgeo4proj4util17ArrayOfBaseObjectD0Ev@Base 6.0.0
 _ZN5osgeo4proj4util17ArrayOfBaseObjectD1Ev@Base 6.0.0
 _ZN5osgeo4proj4util17ArrayOfBaseObjectD2Ev@Base 6.0.0
 _ZN5osgeo4proj4util25InvalidValueTypeExceptionC1ERKS2_@Base 6.0.0
 _ZN5osgeo4proj4util25InvalidValueTypeExceptionC2ERKS2_@Base 6.0.0
 _ZN5osgeo4proj4util25InvalidValueTypeExceptionD0Ev@Base 6.0.0
 _ZN5osgeo4proj4util25InvalidValueTypeExceptionD1Ev@Base 6.0.0
 _ZN5osgeo4proj4util25InvalidValueTypeExceptionD2Ev@Base 6.0.0
 _ZN5osgeo4proj4util29UnsupportedOperationExceptionC1ERKS2_@Base 6.0.0
 _ZN5osgeo4proj4util29UnsupportedOperationExceptionC2ERKS2_@Base 6.0.0
 _ZN5osgeo4proj4util29UnsupportedOperationExceptionD0Ev@Base 6.0.0
 _ZN5osgeo4proj4util29UnsupportedOperationExceptionD1Ev@Base 6.0.0
 _ZN5osgeo4proj4util29UnsupportedOperationExceptionD2Ev@Base 6.0.0
 _ZN5osgeo4proj4util8CodeListD1Ev@Base 6.0.0
 _ZN5osgeo4proj4util8CodeListD2Ev@Base 6.0.0
 _ZN5osgeo4proj4util9ExceptionC1ERKS2_@Base 6.0.0
 _ZN5osgeo4proj4util9ExceptionC2ERKS2_@Base 6.0.0
 _ZN5osgeo4proj4util9ExceptionD0Ev@Base 6.0.0
 _ZN5osgeo4proj4util9ExceptionD1Ev@Base 6.0.0
 _ZN5osgeo4proj4util9ExceptionD2Ev@Base 6.0.0
 _ZN5osgeo4proj4util9LocalNameD0Ev@Base 6.0.0
 _ZN5osgeo4proj4util9LocalNameD1Ev@Base 6.0.0
 _ZN5osgeo4proj4util9LocalNameD2Ev@Base 6.0.0
 _ZN5osgeo4proj4util9NameSpaceD1Ev@Base 6.0.0
 _ZN5osgeo4proj4util9NameSpaceD2Ev@Base 6.0.0
 _ZN5osgeo4proj5datum13DatumEnsemble6createERKNS0_4util11PropertyMapERKSt6vectorIN7dropbox6oxygen2nnISt10shared_ptrINS1_5DatumEEEESaISE_EERKNSA_ISB_INS0_8metadata18PositionalAccuracyEEEE@Base 6.0.0
 _ZN5osgeo4proj5datum13DatumEnsembleD0Ev@Base 6.0.0
 _ZN5osgeo4proj5datum13DatumEnsembleD1Ev@Base 6.0.0
 _ZN5osgeo4proj5datum13DatumEnsembleD2Ev@Base 6.0.0
 _ZN5osgeo4proj5datum13PrimeMeridian18REFERENCE_MERIDIANE@Base 6.0.0
 _ZN5osgeo4proj5datum13PrimeMeridian5PARISE@Base 6.0.0
 _ZN5osgeo4proj5datum13PrimeMeridian6createERKNS0_4util11PropertyMapERKNS0_6common5AngleE@Base 6.0.0
 _ZN5osgeo4proj5datum13PrimeMeridian9GREENWICHE@Base 6.0.0
 _ZN5osgeo4proj5datum13PrimeMeridianD0Ev@Base 6.0.0
 _ZN5osgeo4proj5datum13PrimeMeridianD1Ev@Base 6.0.0
 _ZN5osgeo4proj5datum13PrimeMeridianD2Ev@Base 6.0.0
 _ZN5osgeo4proj5datum13TemporalDatum28CALENDAR_PROLEPTIC_GREGORIANB5cxx11E@Base 6.0.0
 _ZN5osgeo4proj5datum13TemporalDatum6createERKNS0_4util11PropertyMapERKNS0_6common8DateTimeERKNSt7__cxx1112basic_stringIcSt11char_traitsIcESaIcEEE@Base 6.0.0
 _ZN5osgeo4proj5datum13TemporalDatumD0Ev@Base 6.0.0
 _ZN5osgeo4proj5datum13TemporalDatumD1Ev@Base 6.0.0
 _ZN5osgeo4proj5datum13TemporalDatumD2Ev@Base 6.0.0
 _ZN5osgeo4proj5datum15ParametricDatum6createERKNS0_4util11PropertyMapERKNS3_8optionalINSt7__cxx1112basic_stringIcSt11char_traitsIcESaIcEEEEE@Base 6.0.0
 _ZN5osgeo4proj5datum15ParametricDatumD0Ev@Base 6.0.0
 _ZN5osgeo4proj5datum15ParametricDatumD1Ev@Base 6.0.0
 _ZN5osgeo4proj5datum15ParametricDatumD2Ev@Base 6.0.0
 _ZN5osgeo4proj5datum16EngineeringDatum6createERKNS0_4util11PropertyMapERKNS3_8optionalINSt7__cxx1112basic_stringIcSt11char_traitsIcESaIcEEEEE@Base 6.0.0
 _ZN5osgeo4proj5datum16EngineeringDatumD0Ev@Base 6.0.0
 _ZN5osgeo4proj5datum16EngineeringDatumD1Ev@Base 6.0.0
 _ZN5osgeo4proj5datum16EngineeringDatumD2Ev@Base 6.0.0
 _ZN5osgeo4proj5datum17RealizationMethod5GEOIDE@Base 6.0.0
 _ZN5osgeo4proj5datum17RealizationMethod5TIDALE@Base 6.0.0
 _ZN5osgeo4proj5datum17RealizationMethod9LEVELLINGE@Base 6.0.0
 _ZN5osgeo4proj5datum17RealizationMethodC1ERKNSt7__cxx1112basic_stringIcSt11char_traitsIcESaIcEEE@Base 6.0.0
 _ZN5osgeo4proj5datum17RealizationMethodC1ERKS2_@Base 6.0.0
 _ZN5osgeo4proj5datum17RealizationMethodC2ERKNSt7__cxx1112basic_stringIcSt11char_traitsIcESaIcEEE@Base 6.0.0
 _ZN5osgeo4proj5datum17RealizationMethodC2ERKS2_@Base 6.0.0
 _ZN5osgeo4proj5datum17RealizationMethodD1Ev@Base 6.0.0
 _ZN5osgeo4proj5datum17RealizationMethodD2Ev@Base 6.0.0
 _ZN5osgeo4proj5datum17RealizationMethodaSERKS2_@Base 6.0.0
 _ZN5osgeo4proj5datum22GeodeticReferenceFrame6createERKNS0_4util11PropertyMapERKN7dropbox6oxygen2nnISt10shared_ptrINS1_9EllipsoidEEEERKNS3_8optionalINSt7__cxx1112basic_stringIcSt11char_traitsIcESaIcEEEEERKNS9_ISA_INS1_13PrimeMeridianEEEE@Base 6.0.0
 _ZN5osgeo4proj5datum22GeodeticReferenceFrame9EPSG_6267E@Base 6.0.0
 _ZN5osgeo4proj5datum22GeodeticReferenceFrame9EPSG_6269E@Base 6.0.0
 _ZN5osgeo4proj5datum22GeodeticReferenceFrame9EPSG_6326E@Base 6.0.0
 _ZN5osgeo4proj5datum22GeodeticReferenceFrameD0Ev@Base 6.0.0
 _ZN5osgeo4proj5datum22GeodeticReferenceFrameD1Ev@Base 6.0.0
 _ZN5osgeo4proj5datum22GeodeticReferenceFrameD2Ev@Base 6.0.0
 _ZN5osgeo4proj5datum22VerticalReferenceFrame6createERKNS0_4util11PropertyMapERKNS3_8optionalINSt7__cxx1112basic_stringIcSt11char_traitsIcESaIcEEEEERKNS7_INS1_17RealizationMethodEEE@Base 6.0.0
 _ZN5osgeo4proj5datum22VerticalReferenceFrameD0Ev@Base 6.0.0
 _ZN5osgeo4proj5datum22VerticalReferenceFrameD1Ev@Base 6.0.0
 _ZN5osgeo4proj5datum22VerticalReferenceFrameD2Ev@Base 6.0.0
 _ZN5osgeo4proj5datum29DynamicGeodeticReferenceFrame6createERKNS0_4util11PropertyMapERKN7dropbox6oxygen2nnISt10shared_ptrINS1_9EllipsoidEEEERKNS3_8optionalINSt7__cxx1112basic_stringIcSt11char_traitsIcESaIcEEEEERKNS9_ISA_INS1_13PrimeMeridianEEEERKNS0_6common7MeasureESP_@Base 6.0.0
 _ZN5osgeo4proj5datum29DynamicGeodeticReferenceFrameD0Ev@Base 6.0.0
 _ZN5osgeo4proj5datum29DynamicGeodeticReferenceFrameD1Ev@Base 6.0.0
 _ZN5osgeo4proj5datum29DynamicGeodeticReferenceFrameD2Ev@Base 6.0.0
 _ZN5osgeo4proj5datum29DynamicVerticalReferenceFrame6createERKNS0_4util11PropertyMapERKNS3_8optionalINSt7__cxx1112basic_stringIcSt11char_traitsIcESaIcEEEEERKNS7_INS1_17RealizationMethodEEERKNS0_6common7MeasureESG_@Base 6.0.0
 _ZN5osgeo4proj5datum29DynamicVerticalReferenceFrameD0Ev@Base 6.0.0
 _ZN5osgeo4proj5datum29DynamicVerticalReferenceFrameD1Ev@Base 6.0.0
 _ZN5osgeo4proj5datum29DynamicVerticalReferenceFrameD2Ev@Base 6.0.0
 _ZN5osgeo4proj5datum5DatumD0Ev@Base 6.0.0
 _ZN5osgeo4proj5datum5DatumD1Ev@Base 6.0.0
 _ZN5osgeo4proj5datum5DatumD2Ev@Base 6.0.0
 _ZN5osgeo4proj5datum9Ellipsoid11CLARKE_1866E@Base 6.0.0
 _ZN5osgeo4proj5datum9Ellipsoid12createSphereERKNS0_4util11PropertyMapERKNS0_6common6LengthERKNSt7__cxx1112basic_stringIcSt11char_traitsIcESaIcEEE@Base 6.0.0
 _ZN5osgeo4proj5datum9Ellipsoid13createTwoAxisERKNS0_4util11PropertyMapERKNS0_6common6LengthESA_RKNSt7__cxx1112basic_stringIcSt11char_traitsIcESaIcEEE@Base 6.0.0
 _ZN5osgeo4proj5datum9Ellipsoid21createFlattenedSphereERKNS0_4util11PropertyMapERKNS0_6common6LengthERKNS7_5ScaleERKNSt7__cxx1112basic_stringIcSt11char_traitsIcESaIcEEE@Base 6.0.0
 _ZN5osgeo4proj5datum9Ellipsoid5EARTHB5cxx11E@Base 6.0.0
 _ZN5osgeo4proj5datum9Ellipsoid5WGS84E@Base 6.0.0
 _ZN5osgeo4proj5datum9Ellipsoid7GRS1980E@Base 6.0.0
 _ZN5osgeo4proj5datum9EllipsoidD0Ev@Base 6.0.0
 _ZN5osgeo4proj5datum9EllipsoidD1Ev@Base 6.0.0
 _ZN5osgeo4proj5datum9EllipsoidD2Ev@Base 6.0.0
 _ZN5osgeo4proj6common11ObjectUsage13setPropertiesERKNS0_4util11PropertyMapE@Base 6.0.0
 _ZN5osgeo4proj6common11ObjectUsage17OBJECT_DOMAIN_KEYB5cxx11E@Base 6.0.0
 _ZN5osgeo4proj6common11ObjectUsage22DOMAIN_OF_VALIDITY_KEYB5cxx11E@Base 6.0.0
 _ZN5osgeo4proj6common11ObjectUsage9SCOPE_KEYB5cxx11E@Base 6.0.0
 _ZN5osgeo4proj6common11ObjectUsageC1ERKS2_@Base 6.0.0
 _ZN5osgeo4proj6common11ObjectUsageC1Ev@Base 6.0.0
 _ZN5osgeo4proj6common11ObjectUsageC2ERKS2_@Base 6.0.0
 _ZN5osgeo4proj6common11ObjectUsageC2Ev@Base 6.0.0
 _ZN5osgeo4proj6common11ObjectUsageD0Ev@Base 6.0.0
 _ZN5osgeo4proj6common11ObjectUsageD1Ev@Base 6.0.0
 _ZN5osgeo4proj6common11ObjectUsageD2Ev@Base 6.0.0
 _ZN5osgeo4proj6common12ObjectDomain6createERKNS0_4util8optionalINSt7__cxx1112basic_stringIcSt11char_traitsIcESaIcEEEEERKSt10shared_ptrINS0_8metadata6ExtentEE@Base 6.0.0
 _ZN5osgeo4proj6common12ObjectDomainC1ERKNS0_4util8optionalINSt7__cxx1112basic_stringIcSt11char_traitsIcESaIcEEEEERKSt10shared_ptrINS0_8metadata6ExtentEE@Base 6.0.0
 _ZN5osgeo4proj6common12ObjectDomainC1ERKS2_@Base 6.0.0
 _ZN5osgeo4proj6common12ObjectDomainC2ERKNS0_4util8optionalINSt7__cxx1112basic_stringIcSt11char_traitsIcESaIcEEEEERKSt10shared_ptrINS0_8metadata6ExtentEE@Base 6.0.0
 _ZN5osgeo4proj6common12ObjectDomainC2ERKS2_@Base 6.0.0
 _ZN5osgeo4proj6common12ObjectDomainD0Ev@Base 6.0.0
 _ZN5osgeo4proj6common12ObjectDomainD1Ev@Base 6.0.0
 _ZN5osgeo4proj6common12ObjectDomainD2Ev@Base 6.0.0
 _ZN5osgeo4proj6common13UnitOfMeasure10ARC_SECONDE@Base 6.0.0
 _ZN5osgeo4proj6common13UnitOfMeasure11MICRORADIANE@Base 6.0.0
 _ZN5osgeo4proj6common13UnitOfMeasure11SCALE_UNITYE@Base 6.0.0
 _ZN5osgeo4proj6common13UnitOfMeasure12PPM_PER_YEARE@Base 6.0.0
 _ZN5osgeo4proj6common13UnitOfMeasure14METRE_PER_YEARE@Base 6.0.0
 _ZN5osgeo4proj6common13UnitOfMeasure17PARTS_PER_MILLIONE@Base 6.0.0
 _ZN5osgeo4proj6common13UnitOfMeasure19ARC_SECOND_PER_YEARE@Base 6.0.0
 _ZN5osgeo4proj6common13UnitOfMeasure4GRADE@Base 6.0.0
 _ZN5osgeo4proj6common13UnitOfMeasure4NONEE@Base 6.0.0
 _ZN5osgeo4proj6common13UnitOfMeasure4YEARE@Base 6.0.0
 _ZN5osgeo4proj6common13UnitOfMeasure5METREE@Base 6.0.0
 _ZN5osgeo4proj6common13UnitOfMeasure6DEGREEE@Base 6.0.0
 _ZN5osgeo4proj6common13UnitOfMeasure6RADIANE@Base 6.0.0
 _ZN5osgeo4proj6common13UnitOfMeasure6SECONDE@Base 6.0.0
 _ZN5osgeo4proj6common13UnitOfMeasureC1ERKNSt7__cxx1112basic_stringIcSt11char_traitsIcESaIcEEEdNS2_4TypeESA_SA_@Base 6.0.0
 _ZN5osgeo4proj6common13UnitOfMeasureC1ERKS2_@Base 6.0.0
 _ZN5osgeo4proj6common13UnitOfMeasureC2ERKNSt7__cxx1112basic_stringIcSt11char_traitsIcESaIcEEEdNS2_4TypeESA_SA_@Base 6.0.0
 _ZN5osgeo4proj6common13UnitOfMeasureC2ERKS2_@Base 6.0.0
 _ZN5osgeo4proj6common13UnitOfMeasureD0Ev@Base 6.0.0
 _ZN5osgeo4proj6common13UnitOfMeasureD1Ev@Base 6.0.0
 _ZN5osgeo4proj6common13UnitOfMeasureD2Ev@Base 6.0.0
 _ZN5osgeo4proj6common13UnitOfMeasureaSERKS2_@Base 6.0.0
 _ZN5osgeo4proj6common16IdentifiedObject11REMARKS_KEYB5cxx11E@Base 6.0.0
 _ZN5osgeo4proj6common16IdentifiedObject13setPropertiesERKNS0_4util11PropertyMapE@Base 6.0.0
 _ZN5osgeo4proj6common16IdentifiedObject14DEPRECATED_KEYB5cxx11E@Base 6.0.0
 _ZN5osgeo4proj6common16IdentifiedObject15IDENTIFIERS_KEYB5cxx11E@Base 6.0.0
 _ZN5osgeo4proj6common16IdentifiedObject8NAME_KEYB5cxx11E@Base 6.0.0
 _ZN5osgeo4proj6common16IdentifiedObject9ALIAS_KEYB5cxx11E@Base 6.0.0
 _ZN5osgeo4proj6common16IdentifiedObjectC1ERKS2_@Base 6.0.0
 _ZN5osgeo4proj6common16IdentifiedObjectC1Ev@Base 6.0.0
 _ZN5osgeo4proj6common16IdentifiedObjectC2ERKS2_@Base 6.0.0
 _ZN5osgeo4proj6common16IdentifiedObjectC2Ev@Base 6.0.0
 _ZN5osgeo4proj6common16IdentifiedObjectD0Ev@Base 6.0.0
 _ZN5osgeo4proj6common16IdentifiedObjectD1Ev@Base 6.0.0
 _ZN5osgeo4proj6common16IdentifiedObjectD2Ev@Base 6.0.0
 _ZN5osgeo4proj6common5AngleC1ERKS2_@Base 6.0.0
 _ZN5osgeo4proj6common5AngleC1Ed@Base 6.0.0
 _ZN5osgeo4proj6common5AngleC1EdRKNS1_13UnitOfMeasureE@Base 6.0.0
 _ZN5osgeo4proj6common5AngleC2ERKS2_@Base 6.0.0
 _ZN5osgeo4proj6common5AngleC2Ed@Base 6.0.0
 _ZN5osgeo4proj6common5AngleC2EdRKNS1_13UnitOfMeasureE@Base 6.0.0
 _ZN5osgeo4proj6common5AngleD0Ev@Base 6.0.0
 _ZN5osgeo4proj6common5AngleD1Ev@Base 6.0.0
 _ZN5osgeo4proj6common5AngleD2Ev@Base 6.0.0
 _ZN5osgeo4proj6common5ScaleC1ERKS2_@Base 6.0.0
 _ZN5osgeo4proj6common5ScaleC1Ed@Base 6.0.0
 _ZN5osgeo4proj6common5ScaleC1EdRKNS1_13UnitOfMeasureE@Base 6.0.0
 _ZN5osgeo4proj6common5ScaleC2ERKS2_@Base 6.0.0
 _ZN5osgeo4proj6common5ScaleC2Ed@Base 6.0.0
 _ZN5osgeo4proj6common5ScaleC2EdRKNS1_13UnitOfMeasureE@Base 6.0.0
 _ZN5osgeo4proj6common5ScaleD0Ev@Base 6.0.0
 _ZN5osgeo4proj6common5ScaleD1Ev@Base 6.0.0
 _ZN5osgeo4proj6common5ScaleD2Ev@Base 6.0.0
 _ZN5osgeo4proj6common6LengthC1ERKS2_@Base 6.0.0
 _ZN5osgeo4proj6common6LengthC1Ed@Base 6.0.0
 _ZN5osgeo4proj6common6LengthC1EdRKNS1_13UnitOfMeasureE@Base 6.0.0
 _ZN5osgeo4proj6common6LengthC2ERKS2_@Base 6.0.0
 _ZN5osgeo4proj6common6LengthC2Ed@Base 6.0.0
 _ZN5osgeo4proj6common6LengthC2EdRKNS1_13UnitOfMeasureE@Base 6.0.0
 _ZN5osgeo4proj6common6LengthD0Ev@Base 6.0.0
 _ZN5osgeo4proj6common6LengthD1Ev@Base 6.0.0
 _ZN5osgeo4proj6common6LengthD2Ev@Base 6.0.0
 _ZN5osgeo4proj6common7MeasureC1ERKS2_@Base 6.0.0
 _ZN5osgeo4proj6common7MeasureC1EdRKNS1_13UnitOfMeasureE@Base 6.0.0
 _ZN5osgeo4proj6common7MeasureC2ERKS2_@Base 6.0.0
 _ZN5osgeo4proj6common7MeasureC2EdRKNS1_13UnitOfMeasureE@Base 6.0.0
 _ZN5osgeo4proj6common7MeasureD0Ev@Base 6.0.0
 _ZN5osgeo4proj6common7MeasureD1Ev@Base 6.0.0
 _ZN5osgeo4proj6common7MeasureD2Ev@Base 6.0.0
 _ZN5osgeo4proj6common8DateTime6createERKNSt7__cxx1112basic_stringIcSt11char_traitsIcESaIcEEE@Base 6.0.0
 _ZN5osgeo4proj6common8DateTimeC1ERKS2_@Base 6.0.0
 _ZN5osgeo4proj6common8DateTimeC2ERKS2_@Base 6.0.0
 _ZN5osgeo4proj6common8DateTimeD1Ev@Base 6.0.0
 _ZN5osgeo4proj6common8DateTimeD2Ev@Base 6.0.0
 _ZN5osgeo4proj6common9DataEpochC1ERKNS1_7MeasureE@Base 6.0.0
 _ZN5osgeo4proj6common9DataEpochC1ERKS2_@Base 6.0.0
 _ZN5osgeo4proj6common9DataEpochC2ERKNS1_7MeasureE@Base 6.0.0
 _ZN5osgeo4proj6common9DataEpochC2ERKS2_@Base 6.0.0
 _ZN5osgeo4proj6common9DataEpochD1Ev@Base 6.0.0
 _ZN5osgeo4proj6common9DataEpochD2Ev@Base 6.0.0
 _ZN5osgeo4proj8internal10replaceAllERKNSt7__cxx1112basic_stringIcSt11char_traitsIcESaIcEEES9_S9_@Base 6.0.0
 _ZN5osgeo4proj8internal13c_locale_stodERKNSt7__cxx1112basic_stringIcSt11char_traitsIcESaIcEEE@Base 6.0.0
 _ZN5osgeo4proj8internal5splitERKNSt7__cxx1112basic_stringIcSt11char_traitsIcESaIcEEES9_@Base 6.1.0
 _ZN5osgeo4proj8internal5splitERKNSt7__cxx1112basic_stringIcSt11char_traitsIcESaIcEEEc@Base 6.0.0
 _ZN5osgeo4proj8internal7ci_findERKNSt7__cxx1112basic_stringIcSt11char_traitsIcESaIcEEEPKc@Base 6.0.0
 _ZN5osgeo4proj8internal7tolowerERKNSt7__cxx1112basic_stringIcSt11char_traitsIcESaIcEEE@Base 6.0.0
 _ZN5osgeo4proj8internal8ci_equalERKNSt7__cxx1112basic_stringIcSt11char_traitsIcESaIcEEEPKc@Base 6.0.0
 _ZN5osgeo4proj8internal8ci_equalERKNSt7__cxx1112basic_stringIcSt11char_traitsIcESaIcEEES9_@Base 6.0.0
 _ZN5osgeo4proj8internal8toStringB5cxx11Edi@Base 6.0.0
 _ZN5osgeo4proj8metadata10Identifier11VERSION_KEYB5cxx11E@Base 6.0.0
 _ZN5osgeo4proj8metadata10Identifier13AUTHORITY_KEYB5cxx11E@Base 6.0.0
 _ZN5osgeo4proj8metadata10Identifier13CODESPACE_KEYB5cxx11E@Base 6.0.0
 _ZN5osgeo4proj8metadata10Identifier15DESCRIPTION_KEYB5cxx11E@Base 6.0.0
 _ZN5osgeo4proj8metadata10Identifier16isEquivalentNameEPKcS4_@Base 6.0.0
 _ZN5osgeo4proj8metadata10Identifier3OGCB5cxx11E@Base 6.0.0
 _ZN5osgeo4proj8metadata10Identifier4EPSGB5cxx11E@Base 6.0.0
 _ZN5osgeo4proj8metadata10Identifier6createERKNSt7__cxx1112basic_stringIcSt11char_traitsIcESaIcEEERKNS0_4util11PropertyMapE@Base 6.0.0
 _ZN5osgeo4proj8metadata10Identifier7URI_KEYB5cxx11E@Base 6.0.0
 _ZN5osgeo4proj8metadata10Identifier8CODE_KEYB5cxx11E@Base 6.0.0
 _ZN5osgeo4proj8metadata10IdentifierC1ERKS2_@Base 6.0.0
 _ZN5osgeo4proj8metadata10IdentifierC2ERKS2_@Base 6.0.0
 _ZN5osgeo4proj8metadata10IdentifierD0Ev@Base 6.0.0
 _ZN5osgeo4proj8metadata10IdentifierD1Ev@Base 6.0.0
 _ZN5osgeo4proj8metadata10IdentifierD2Ev@Base 6.0.0
 _ZN5osgeo4proj8metadata14TemporalExtent6createERKNSt7__cxx1112basic_stringIcSt11char_traitsIcESaIcEEESA_@Base 6.0.0
 _ZN5osgeo4proj8metadata14TemporalExtentD0Ev@Base 6.0.0
 _ZN5osgeo4proj8metadata14TemporalExtentD1Ev@Base 6.0.0
 _ZN5osgeo4proj8metadata14TemporalExtentD2Ev@Base 6.0.0
 _ZN5osgeo4proj8metadata14VerticalExtent6createEddRKN7dropbox6oxygen2nnISt10shared_ptrINS0_6common13UnitOfMeasureEEEE@Base 6.0.0
 _ZN5osgeo4proj8metadata14VerticalExtentD0Ev@Base 6.0.0
 _ZN5osgeo4proj8metadata14VerticalExtentD1Ev@Base 6.0.0
 _ZN5osgeo4proj8metadata14VerticalExtentD2Ev@Base 6.0.0
 _ZN5osgeo4proj8metadata16GeographicExtentD0Ev@Base 6.0.0
 _ZN5osgeo4proj8metadata16GeographicExtentD1Ev@Base 6.0.0
 _ZN5osgeo4proj8metadata16GeographicExtentD2Ev@Base 6.0.0
 _ZN5osgeo4proj8metadata18PositionalAccuracy6createERKNSt7__cxx1112basic_stringIcSt11char_traitsIcESaIcEEE@Base 6.0.0
 _ZN5osgeo4proj8metadata18PositionalAccuracyD0Ev@Base 6.0.0
 _ZN5osgeo4proj8metadata18PositionalAccuracyD1Ev@Base 6.0.0
 _ZN5osgeo4proj8metadata18PositionalAccuracyD2Ev@Base 6.0.0
 _ZN5osgeo4proj8metadata21GeographicBoundingBox6createEdddd@Base 6.0.0
 _ZN5osgeo4proj8metadata21GeographicBoundingBoxD0Ev@Base 6.0.0
 _ZN5osgeo4proj8metadata21GeographicBoundingBoxD1Ev@Base 6.0.0
 _ZN5osgeo4proj8metadata21GeographicBoundingBoxD2Ev@Base 6.0.0
 _ZN5osgeo4proj8metadata6Extent14createFromBBOXEddddRKNS0_4util8optionalINSt7__cxx1112basic_stringIcSt11char_traitsIcESaIcEEEEE@Base 6.0.0
 _ZN5osgeo4proj8metadata6Extent5WORLDE@Base 6.0.0
 _ZN5osgeo4proj8metadata6Extent6createERKNS0_4util8optionalINSt7__cxx1112basic_stringIcSt11char_traitsIcESaIcEEEEERKSt6vectorIN7dropbox6oxygen2nnISt10shared_ptrINS1_16GeographicExtentEEEESaISL_EERKSE_INSH_ISI_INS1_14VerticalExtentEEEESaISS_EERKSE_INSH_ISI_INS1_14TemporalExtentEEEESaISZ_EE@Base 6.0.0
 _ZN5osgeo4proj8metadata6ExtentC1ERKS2_@Base 6.0.0
 _ZN5osgeo4proj8metadata6ExtentC2ERKS2_@Base 6.0.0
 _ZN5osgeo4proj8metadata6ExtentD0Ev@Base 6.0.0
 _ZN5osgeo4proj8metadata6ExtentD1Ev@Base 6.0.0
 _ZN5osgeo4proj8metadata6ExtentD2Ev@Base 6.0.0
 _ZN5osgeo4proj8metadata8CitationC1ERKNSt7__cxx1112basic_stringIcSt11char_traitsIcESaIcEEE@Base 6.0.0
 _ZN5osgeo4proj8metadata8CitationC1ERKS2_@Base 6.0.0
 _ZN5osgeo4proj8metadata8CitationC1Ev@Base 6.0.0
 _ZN5osgeo4proj8metadata8CitationC2ERKNSt7__cxx1112basic_stringIcSt11char_traitsIcESaIcEEE@Base 6.0.0
 _ZN5osgeo4proj8metadata8CitationC2ERKS2_@Base 6.0.0
 _ZN5osgeo4proj8metadata8CitationC2Ev@Base 6.0.0
 _ZN5osgeo4proj8metadata8CitationD0Ev@Base 6.0.0
 _ZN5osgeo4proj8metadata8CitationD1Ev@Base 6.0.0
 _ZN5osgeo4proj8metadata8CitationD2Ev@Base 6.0.0
 _ZN5osgeo4proj9operation10Conversion10createGallERKNS0_4util11PropertyMapERKNS0_6common5AngleERKNS7_6LengthESD_@Base 6.0.0
 _ZN5osgeo4proj9operation10Conversion11createBonneERKNS0_4util11PropertyMapERKNS0_6common5AngleESA_RKNS7_6LengthESD_@Base 6.0.0
 _ZN5osgeo4proj9operation10Conversion12createKrovakERKNS0_4util11PropertyMapERKNS0_6common5AngleESA_SA_SA_RKNS7_5ScaleERKNS7_6LengthESG_@Base 6.0.0
 _ZN5osgeo4proj9operation10Conversion13createEckertIERKNS0_4util11PropertyMapERKNS0_6common5AngleERKNS7_6LengthESD_@Base 6.0.0
 _ZN5osgeo4proj9operation10Conversion13createEckertVERKNS0_4util11PropertyMapERKNS0_6common5AngleERKNS7_6LengthESD_@Base 6.0.0
 _ZN5osgeo4proj9operation10Conversion13createWagnerIERKNS0_4util11PropertyMapERKNS0_6common5AngleERKNS7_6LengthESD_@Base 6.0.0
 _ZN5osgeo4proj9operation10Conversion13createWagnerVERKNS0_4util11PropertyMapERKNS0_6common5AngleERKNS7_6LengthESD_@Base 6.0.0
 _ZN5osgeo4proj9operation10Conversion14createEckertIIERKNS0_4util11PropertyMapERKNS0_6common5AngleERKNS7_6LengthESD_@Base 6.0.0
 _ZN5osgeo4proj9operation10Conversion14createEckertIVERKNS0_4util11PropertyMapERKNS0_6common5AngleERKNS7_6LengthESD_@Base 6.0.0
 _ZN5osgeo4proj9operation10Conversion14createEckertVIERKNS0_4util11PropertyMapERKNS0_6common5AngleERKNS7_6LengthESD_@Base 6.0.0
 _ZN5osgeo4proj9operation10Conversion14createGnomonicERKNS0_4util11PropertyMapERKNS0_6common5AngleESA_RKNS7_6LengthESD_@Base 6.0.0
 _ZN5osgeo4proj9operation10Conversion14createRobinsonERKNS0_4util11PropertyMapERKNS0_6common5AngleERKNS7_6LengthESD_@Base 6.0.0
 _ZN5osgeo4proj9operation10Conversion14createWagnerIIERKNS0_4util11PropertyMapERKNS0_6common5AngleERKNS7_6LengthESD_@Base 6.0.0
 _ZN5osgeo4proj9operation10Conversion14createWagnerIVERKNS0_4util11PropertyMapERKNS0_6common5AngleERKNS7_6LengthESD_@Base 6.0.0
 _ZN5osgeo4proj9operation10Conversion14createWagnerVIERKNS0_4util11PropertyMapERKNS0_6common5AngleERKNS7_6LengthESD_@Base 6.0.0
 _ZN5osgeo4proj9operation10Conversion15createEckertIIIERKNS0_4util11PropertyMapERKNS0_6common5AngleERKNS7_6LengthESD_@Base 6.0.0
 _ZN5osgeo4proj9operation10Conversion15createMollweideERKNS0_4util11PropertyMapERKNS0_6common5AngleERKNS7_6LengthESD_@Base 6.0.0
 _ZN5osgeo4proj9operation10Conversion15createWagnerIIIERKNS0_4util11PropertyMapERKNS0_6common5AngleESA_RKNS7_6LengthESD_@Base 6.0.0
 _ZN5osgeo4proj9operation10Conversion15createWagnerVIIERKNS0_4util11PropertyMapERKNS0_6common5AngleERKNS7_6LengthESD_@Base 6.0.0
 _ZN5osgeo4proj9operation10Conversion16createEqualEarthERKNS0_4util11PropertyMapERKNS0_6common5AngleERKNS7_6LengthESD_@Base 6.0.0
 _ZN5osgeo4proj9operation10Conversion16createSinusoidalERKNS0_4util11PropertyMapERKNS0_6common5AngleERKNS7_6LengthESD_@Base 6.0.0
 _ZN5osgeo4proj9operation10Conversion18createOrthographicERKNS0_4util11PropertyMapERKNS0_6common5AngleESA_RKNS7_6LengthESD_@Base 6.0.0
 _ZN5osgeo4proj9operation10Conversion19createStereographicERKNS0_4util11PropertyMapERKNS0_6common5AngleESA_RKNS7_5ScaleERKNS7_6LengthESG_@Base 6.0.0
 _ZN5osgeo4proj9operation10Conversion19createVanDerGrintenERKNS0_4util11PropertyMapERKNS0_6common5AngleERKNS7_6LengthESD_@Base 6.0.0
 _ZN5osgeo4proj9operation10Conversion20createCassiniSoldnerERKNS0_4util11PropertyMapERKNS0_6common5AngleESA_RKNS7_6LengthESD_@Base 6.0.0
 _ZN5osgeo4proj9operation10Conversion20createGuamProjectionERKNS0_4util11PropertyMapERKNS0_6common5AngleESA_RKNS7_6LengthESD_@Base 6.0.0
 _ZN5osgeo4proj9operation10Conversion21createAlbersEqualAreaERKNS0_4util11PropertyMapERKNS0_6common5AngleESA_SA_SA_RKNS7_6LengthESD_@Base 6.0.0
 _ZN5osgeo4proj9operation10Conversion21createGoodeHomolosineERKNS0_4util11PropertyMapERKNS0_6common5AngleERKNS7_6LengthESD_@Base 6.0.0
 _ZN5osgeo4proj9operation10Conversion22createEquidistantConicERKNS0_4util11PropertyMapERKNS0_6common5AngleESA_SA_SA_RKNS7_6LengthESD_@Base 6.0.0
 _ZN5osgeo4proj9operation10Conversion22createMercatorVariantAERKNS0_4util11PropertyMapERKNS0_6common5AngleESA_RKNS7_5ScaleERKNS7_6LengthESG_@Base 6.0.0
 _ZN5osgeo4proj9operation10Conversion22createMercatorVariantBERKNS0_4util11PropertyMapERKNS0_6common5AngleESA_RKNS7_6LengthESD_@Base 6.0.0
 _ZN5osgeo4proj9operation10Conversion23createAmericanPolyconicERKNS0_4util11PropertyMapERKNS0_6common5AngleESA_RKNS7_6LengthESD_@Base 6.0.0
 _ZN5osgeo4proj9operation10Conversion23createAxisOrderReversalEb@Base 6.0.0
 _ZN5osgeo4proj9operation10Conversion23createMillerCylindricalERKNS0_4util11PropertyMapERKNS0_6common5AngleERKNS7_6LengthESD_@Base 6.0.0
 _ZN5osgeo4proj9operation10Conversion24createChangeVerticalUnitERKNS0_4util11PropertyMapERKNS0_6common5ScaleE@Base 6.0.0
 _ZN5osgeo4proj9operation10Conversion24createTransverseMercatorERKNS0_4util11PropertyMapERKNS0_6common5AngleESA_RKNS7_5ScaleERKNS7_6LengthESG_@Base 6.0.0
 _ZN5osgeo4proj9operation10Conversion24createTunisiaMappingGridERKNS0_4util11PropertyMapERKNS0_6common5AngleESA_RKNS7_6LengthESD_@Base 6.0.0
 _ZN5osgeo4proj9operation10Conversion25createHeightDepthReversalERKNS0_4util11PropertyMapE@Base 6.3.0
 _ZN5osgeo4proj9operation10Conversion25createKrovakNorthOrientedERKNS0_4util11PropertyMapERKNS0_6common5AngleESA_SA_SA_RKNS7_5ScaleERKNS7_6LengthESG_@Base 6.0.0
 _ZN5osgeo4proj9operation10Conversion25createTwoPointEquidistantERKNS0_4util11PropertyMapERKNS0_6common5AngleESA_SA_SA_RKNS7_6LengthESD_@Base 6.0.0
 _ZN5osgeo4proj9operation10Conversion25createVerticalPerspectiveERKNS0_4util11PropertyMapERKNS0_6common5AngleESA_RKNS7_6LengthESD_SD_SD_@Base 6.3.0
 _ZN5osgeo4proj9operation10Conversion26createAzimuthalEquidistantERKNS0_4util11PropertyMapERKNS0_6common5AngleESA_RKNS7_6LengthESD_@Base 6.0.0
 _ZN5osgeo4proj9operation10Conversion26createGeographicGeocentricERKNS0_4util11PropertyMapE@Base 6.0.0
 _ZN5osgeo4proj9operation10Conversion26createObliqueStereographicERKNS0_4util11PropertyMapERKNS0_6common5AngleESA_RKNS7_5ScaleERKNS7_6LengthESG_@Base 6.0.0
 _ZN5osgeo4proj9operation10Conversion27createNewZealandMappingGridERKNS0_4util11PropertyMapERKNS0_6common5AngleESA_RKNS7_6LengthESD_@Base 6.0.0
 _ZN5osgeo4proj9operation10Conversion28createEquidistantCylindricalERKNS0_4util11PropertyMapERKNS0_6common5AngleESA_RKNS7_6LengthESD_@Base 6.0.0
 _ZN5osgeo4proj9operation10Conversion28createLabordeObliqueMercatorERKNS0_4util11PropertyMapERKNS0_6common5AngleESA_SA_RKNS7_5ScaleERKNS7_6LengthESG_@Base 6.0.0
 _ZN5osgeo4proj9operation10Conversion31createLambertAzimuthalEqualAreaERKNS0_4util11PropertyMapERKNS0_6common5AngleESA_RKNS7_6LengthESD_@Base 6.0.0
 _ZN5osgeo4proj9operation10Conversion31createLambertConicConformal_1SPERKNS0_4util11PropertyMapERKNS0_6common5AngleESA_RKNS7_5ScaleERKNS7_6LengthESG_@Base 6.0.0
 _ZN5osgeo4proj9operation10Conversion31createLambertConicConformal_2SPERKNS0_4util11PropertyMapERKNS0_6common5AngleESA_SA_SA_RKNS7_6LengthESD_@Base 6.0.0
 _ZN5osgeo4proj9operation10Conversion31createSphericalCrossTrackHeightERKNS0_4util11PropertyMapERKNS0_6common5AngleESA_SA_RKNS7_6LengthE@Base 6.0.0
 _ZN5osgeo4proj9operation10Conversion32createInterruptedGoodeHomolosineERKNS0_4util11PropertyMapERKNS0_6common5AngleERKNS7_6LengthESD_@Base 6.0.0
 _ZN5osgeo4proj9operation10Conversion32createPolarStereographicVariantAERKNS0_4util11PropertyMapERKNS0_6common5AngleESA_RKNS7_5ScaleERKNS7_6LengthESG_@Base 6.0.0
 _ZN5osgeo4proj9operation10Conversion32createPolarStereographicVariantBERKNS0_4util11PropertyMapERKNS0_6common5AngleESA_RKNS7_6LengthESD_@Base 6.0.0
 _ZN5osgeo4proj9operation10Conversion32createPoleRotationGRIBConventionERKNS0_4util11PropertyMapERKNS0_6common5AngleESA_SA_@Base 6.3.0
 _ZN5osgeo4proj9operation10Conversion33createLambertCylindricalEqualAreaERKNS0_4util11PropertyMapERKNS0_6common5AngleESA_RKNS7_6LengthESD_@Base 6.0.0
 _ZN5osgeo4proj9operation10Conversion34createGeostationarySatelliteSweepXERKNS0_4util11PropertyMapERKNS0_6common5AngleERKNS7_6LengthESD_SD_@Base 6.0.0
 _ZN5osgeo4proj9operation10Conversion34createGeostationarySatelliteSweepYERKNS0_4util11PropertyMapERKNS0_6common5AngleERKNS7_6LengthESD_SD_@Base 6.0.0
 _ZN5osgeo4proj9operation10Conversion35createHotineObliqueMercatorVariantAERKNS0_4util11PropertyMapERKNS0_6common5AngleESA_SA_SA_RKNS7_5ScaleERKNS7_6LengthESG_@Base 6.0.0
 _ZN5osgeo4proj9operation10Conversion35createHotineObliqueMercatorVariantBERKNS0_4util11PropertyMapERKNS0_6common5AngleESA_SA_SA_RKNS7_5ScaleERKNS7_6LengthESG_@Base 6.0.0
 _ZN5osgeo4proj9operation10Conversion36createInternationalMapWorldPolyconicERKNS0_4util11PropertyMapERKNS0_6common5AngleESA_SA_RKNS7_6LengthESD_@Base 6.0.0
 _ZN5osgeo4proj9operation10Conversion36createQuadrilateralizedSphericalCubeERKNS0_4util11PropertyMapERKNS0_6common5AngleESA_RKNS7_6LengthESD_@Base 6.0.0
 _ZN5osgeo4proj9operation10Conversion37createEquidistantCylindricalSphericalERKNS0_4util11PropertyMapERKNS0_6common5AngleESA_RKNS7_6LengthESD_@Base 6.0.0
 _ZN5osgeo4proj9operation10Conversion37createTransverseMercatorSouthOrientedERKNS0_4util11PropertyMapERKNS0_6common5AngleESA_RKNS7_5ScaleERKNS7_6LengthESG_@Base 6.0.0
 _ZN5osgeo4proj9operation10Conversion38createGaussSchreiberTransverseMercatorERKNS0_4util11PropertyMapERKNS0_6common5AngleESA_RKNS7_5ScaleERKNS7_6LengthESG_@Base 6.0.0
 _ZN5osgeo4proj9operation10Conversion39createLambertConicConformal_2SP_BelgiumERKNS0_4util11PropertyMapERKNS0_6common5AngleESA_SA_SA_RKNS7_6LengthESD_@Base 6.0.0
 _ZN5osgeo4proj9operation10Conversion40createLambertConicConformal_2SP_MichiganERKNS0_4util11PropertyMapERKNS0_6common5AngleESA_SA_SA_RKNS7_6LengthESD_RKNS7_5ScaleE@Base 6.0.0
 _ZN5osgeo4proj9operation10Conversion40createPopularVisualisationPseudoMercatorERKNS0_4util11PropertyMapERKNS0_6common5AngleESA_RKNS7_6LengthESD_@Base 6.0.0
 _ZN5osgeo4proj9operation10Conversion42createLambertCylindricalEqualAreaSphericalERKNS0_4util11PropertyMapERKNS0_6common5AngleESA_RKNS7_6LengthESD_@Base 6.0.0
 _ZN5osgeo4proj9operation10Conversion48createHotineObliqueMercatorTwoPointNaturalOriginERKNS0_4util11PropertyMapERKNS0_6common5AngleESA_SA_SA_SA_RKNS7_5ScaleERKNS7_6LengthESG_@Base 6.0.0
 _ZN5osgeo4proj9operation10Conversion6createERKNS0_4util11PropertyMapERKN7dropbox6oxygen2nnISt10shared_ptrINS1_15OperationMethodEEEERKSt6vectorINS9_ISA_INS1_21GeneralParameterValueEEEESaISJ_EE@Base 6.0.0
 _ZN5osgeo4proj9operation10Conversion6createERKNS0_4util11PropertyMapES6_RKSt6vectorIN7dropbox6oxygen2nnISt10shared_ptrINS1_18OperationParameterEEEESaISE_EERKS7_INSA_ISB_INS1_14ParameterValueEEEESaISL_EE@Base 6.0.0
 _ZN5osgeo4proj9operation10Conversion9createUTMERKNS0_4util11PropertyMapEib@Base 6.0.0
 _ZN5osgeo4proj9operation10ConversionD0Ev@Base 6.0.0
 _ZN5osgeo4proj9operation10ConversionD1Ev@Base 6.0.0
 _ZN5osgeo4proj9operation10ConversionD2Ev@Base 6.0.0
 _ZN5osgeo4proj9operation14ParameterValue14createFilenameERKNSt7__cxx1112basic_stringIcSt11char_traitsIcESaIcEEE@Base 6.0.0
 _ZN5osgeo4proj9operation14ParameterValue6createEPKc@Base 6.0.0
 _ZN5osgeo4proj9operation14ParameterValue6createERKNS0_6common7MeasureE@Base 6.0.0
 _ZN5osgeo4proj9operation14ParameterValue6createERKNSt7__cxx1112basic_stringIcSt11char_traitsIcESaIcEEE@Base 6.0.0
 _ZN5osgeo4proj9operation14ParameterValue6createEb@Base 6.0.0
 _ZN5osgeo4proj9operation14ParameterValue6createEi@Base 6.0.0
 _ZN5osgeo4proj9operation14ParameterValueD0Ev@Base 6.0.0
 _ZN5osgeo4proj9operation14ParameterValueD1Ev@Base 6.0.0
 _ZN5osgeo4proj9operation14ParameterValueD2Ev@Base 6.0.0
 _ZN5osgeo4proj9operation14Transformation10createNTv2ERKNS0_4util11PropertyMapERKN7dropbox6oxygen2nnISt10shared_ptrINS0_3crs3CRSEEEESG_RKNSt7__cxx1112basic_stringIcSt11char_traitsIcESaIcEEERKSt6vectorINS9_ISA_INS0_8metadata18PositionalAccuracyEEEESaIST_EE@Base 6.0.0
 _ZN5osgeo4proj9operation14Transformation13createTOWGS84ERKN7dropbox6oxygen2nnISt10shared_ptrINS0_3crs3CRSEEEERKSt6vectorIdSaIdEE@Base 6.0.0
 _ZN5osgeo4proj9operation14Transformation13createVERTCONERKNS0_4util11PropertyMapERKN7dropbox6oxygen2nnISt10shared_ptrINS0_3crs3CRSEEEESG_RKNSt7__cxx1112basic_stringIcSt11char_traitsIcESaIcEEERKSt6vectorINS9_ISA_INS0_8metadata18PositionalAccuracyEEEESaIST_EE@Base 6.0.0
 _ZN5osgeo4proj9operation14Transformation16createMolodenskyERKNS0_4util11PropertyMapERKN7dropbox6oxygen2nnISt10shared_ptrINS0_3crs3CRSEEEESG_dddddRKSt6vectorINS9_ISA_INS0_8metadata18PositionalAccuracyEEEESaISL_EE@Base 6.0.0
 _ZN5osgeo4proj9operation14Transformation20createPositionVectorERKNS0_4util11PropertyMapERKN7dropbox6oxygen2nnISt10shared_ptrINS0_3crs3CRSEEEESG_dddddddRKSt6vectorINS9_ISA_INS0_8metadata18PositionalAccuracyEEEESaISL_EE@Base 6.0.0
 _ZN5osgeo4proj9operation14Transformation20createVerticalOffsetERKNS0_4util11PropertyMapERKN7dropbox6oxygen2nnISt10shared_ptrINS0_3crs3CRSEEEESG_RKNS0_6common6LengthERKSt6vectorINS9_ISA_INS0_8metadata18PositionalAccuracyEEEESaISP_EE@Base 6.0.0
 _ZN5osgeo4proj9operation14Transformation23createLongitudeRotationERKNS0_4util11PropertyMapERKN7dropbox6oxygen2nnISt10shared_ptrINS0_3crs3CRSEEEESG_RKNS0_6common5AngleE@Base 6.0.0
 _ZN5osgeo4proj9operation14Transformation24createAbridgedMolodenskyERKNS0_4util11PropertyMapERKN7dropbox6oxygen2nnISt10shared_ptrINS0_3crs3CRSEEEESG_dddddRKSt6vectorINS9_ISA_INS0_8metadata18PositionalAccuracyEEEESaISL_EE@Base 6.0.0
 _ZN5osgeo4proj9operation14Transformation24createChangeVerticalUnitERKNS0_4util11PropertyMapERKN7dropbox6oxygen2nnISt10shared_ptrINS0_3crs3CRSEEEESG_RKNS0_6common5ScaleERKSt6vectorINS9_ISA_INS0_8metadata18PositionalAccuracyEEEESaISP_EE@Base 6.0.0
 _ZN5osgeo4proj9operation14Transformation25createGeographic2DOffsetsERKNS0_4util11PropertyMapERKN7dropbox6oxygen2nnISt10shared_ptrINS0_3crs3CRSEEEESG_RKNS0_6common5AngleESK_RKSt6vectorINS9_ISA_INS0_8metadata18PositionalAccuracyEEEESaISP_EE@Base 6.0.0
 _ZN5osgeo4proj9operation14Transformation25createGeographic3DOffsetsERKNS0_4util11PropertyMapERKN7dropbox6oxygen2nnISt10shared_ptrINS0_3crs3CRSEEEESG_RKNS0_6common5AngleESK_RKNSH_6LengthERKSt6vectorINS9_ISA_INS0_8metadata18PositionalAccuracyEEEESaISS_EE@Base 6.0.0
 _ZN5osgeo4proj9operation14Transformation28createGeocentricTranslationsERKNS0_4util11PropertyMapERKN7dropbox6oxygen2nnISt10shared_ptrINS0_3crs3CRSEEEESG_dddRKSt6vectorINS9_ISA_INS0_8metadata18PositionalAccuracyEEEESaISL_EE@Base 6.0.0
 _ZN5osgeo4proj9operation14Transformation29createCoordinateFrameRotationERKNS0_4util11PropertyMapERKN7dropbox6oxygen2nnISt10shared_ptrINS0_3crs3CRSEEEESG_dddddddRKSt6vectorINS9_ISA_INS0_8metadata18PositionalAccuracyEEEESaISL_EE@Base 6.0.0
 _ZN5osgeo4proj9operation14Transformation33createTimeDependentPositionVectorERKNS0_4util11PropertyMapERKN7dropbox6oxygen2nnISt10shared_ptrINS0_3crs3CRSEEEESG_dddddddddddddddRKSt6vectorINS9_ISA_INS0_8metadata18PositionalAccuracyEEEESaISL_EE@Base 6.0.0
 _ZN5osgeo4proj9operation14Transformation35createGeographic2DWithHeightOffsetsERKNS0_4util11PropertyMapERKN7dropbox6oxygen2nnISt10shared_ptrINS0_3crs3CRSEEEESG_RKNS0_6common5AngleESK_RKNSH_6LengthERKSt6vectorINS9_ISA_INS0_8metadata18PositionalAccuracyEEEESaISS_EE@Base 6.0.0
 _ZN5osgeo4proj9operation14Transformation40createGravityRelatedHeightToGeographic3DERKNS0_4util11PropertyMapERKN7dropbox6oxygen2nnISt10shared_ptrINS0_3crs3CRSEEEESG_RKSD_RKNSt7__cxx1112basic_stringIcSt11char_traitsIcESaIcEEERKSt6vectorINS9_ISA_INS0_8metadata18PositionalAccuracyEEEESaISV_EE@Base 6.1.0
 _ZN5osgeo4proj9operation14Transformation42createTimeDependentCoordinateFrameRotationERKNS0_4util11PropertyMapERKN7dropbox6oxygen2nnISt10shared_ptrINS0_3crs3CRSEEEESG_dddddddddddddddRKSt6vectorINS9_ISA_INS0_8metadata18PositionalAccuracyEEEESaISL_EE@Base 6.0.0
 _ZN5osgeo4proj9operation14Transformation6createERKNS0_4util11PropertyMapERKN7dropbox6oxygen2nnISt10shared_ptrINS0_3crs3CRSEEEESG_RKSD_RKNS9_ISA_INS1_15OperationMethodEEEERKSt6vectorINS9_ISA_INS1_21GeneralParameterValueEEEESaISR_EERKSO_INS9_ISA_INS0_8metadata18PositionalAccuracyEEEESaISZ_EE@Base 6.0.0
 _ZN5osgeo4proj9operation14Transformation6createERKNS0_4util11PropertyMapERKN7dropbox6oxygen2nnISt10shared_ptrINS0_3crs3CRSEEEESG_RKSD_S6_RKSt6vectorINS9_ISA_INS1_18OperationParameterEEEESaISM_EERKSJ_INS9_ISA_INS1_14ParameterValueEEEESaIST_EERKSJ_INS9_ISA_INS0_8metadata18PositionalAccuracyEEEESaIS11_EE@Base 6.0.0
 _ZN5osgeo4proj9operation14TransformationD0Ev@Base 6.0.0
 _ZN5osgeo4proj9operation14TransformationD1Ev@Base 6.0.0
 _ZN5osgeo4proj9operation14TransformationD2Ev@Base 6.0.0
 _ZN5osgeo4proj9operation15GridDescriptionC1EOS2_@Base 6.0.0
 _ZN5osgeo4proj9operation15GridDescriptionC1ERKS2_@Base 6.0.0
 _ZN5osgeo4proj9operation15GridDescriptionC1Ev@Base 6.0.0
 _ZN5osgeo4proj9operation15GridDescriptionC2EOS2_@Base 6.0.0
 _ZN5osgeo4proj9operation15GridDescriptionC2ERKS2_@Base 6.0.0
 _ZN5osgeo4proj9operation15GridDescriptionC2Ev@Base 6.0.0
 _ZN5osgeo4proj9operation15GridDescriptionD1Ev@Base 6.0.0
 _ZN5osgeo4proj9operation15GridDescriptionD2Ev@Base 6.0.0
 _ZN5osgeo4proj9operation15OperationMethod6createERKNS0_4util11PropertyMapERKSt6vectorIN7dropbox6oxygen2nnISt10shared_ptrINS1_18OperationParameterEEEESaISE_EE@Base 6.0.0
 _ZN5osgeo4proj9operation15OperationMethod6createERKNS0_4util11PropertyMapERKSt6vectorIN7dropbox6oxygen2nnISt10shared_ptrINS1_25GeneralOperationParameterEEEESaISE_EE@Base 6.0.0
 _ZN5osgeo4proj9operation15OperationMethodD0Ev@Base 6.0.0
 _ZN5osgeo4proj9operation15OperationMethodD1Ev@Base 6.0.0
 _ZN5osgeo4proj9operation15OperationMethodD2Ev@Base 6.0.0
 _ZN5osgeo4proj9operation15SingleOperation15createPROJBasedERKNS0_4util11PropertyMapERKNSt7__cxx1112basic_stringIcSt11char_traitsIcESaIcEEERKSt10shared_ptrINS0_3crs3CRSEESK_RKSt6vectorIN7dropbox6oxygen2nnISF_INS0_8metadata18PositionalAccuracyEEEESaISS_EE@Base 6.0.0
 _ZN5osgeo4proj9operation15SingleOperationD0Ev@Base 6.0.0
 _ZN5osgeo4proj9operation15SingleOperationD1Ev@Base 6.0.0
 _ZN5osgeo4proj9operation15SingleOperationD2Ev@Base 6.0.0
 _ZN5osgeo4proj9operation16InvalidOperationC1ERKS2_@Base 6.0.0
 _ZN5osgeo4proj9operation16InvalidOperationC2ERKS2_@Base 6.0.0
 _ZN5osgeo4proj9operation16InvalidOperationD0Ev@Base 6.0.0
 _ZN5osgeo4proj9operation16InvalidOperationD1Ev@Base 6.0.0
 _ZN5osgeo4proj9operation16InvalidOperationD2Ev@Base 6.0.0
 _ZN5osgeo4proj9operation18OperationParameter18getNameForEPSGCodeEi@Base 6.0.0
 _ZN5osgeo4proj9operation18OperationParameter6createERKNS0_4util11PropertyMapE@Base 6.0.0
 _ZN5osgeo4proj9operation18OperationParameterD0Ev@Base 6.0.0
 _ZN5osgeo4proj9operation18OperationParameterD1Ev@Base 6.0.0
 _ZN5osgeo4proj9operation18OperationParameterD2Ev@Base 6.0.0
 _ZN5osgeo4proj9operation19CoordinateOperation21OPERATION_VERSION_KEYB5cxx11E@Base 6.1.0
 _ZN5osgeo4proj9operation19CoordinateOperationD0Ev@Base 6.0.0
 _ZN5osgeo4proj9operation19CoordinateOperationD1Ev@Base 6.0.0
 _ZN5osgeo4proj9operation19CoordinateOperationD2Ev@Base 6.0.0
 _ZN5osgeo4proj9operation20PointMotionOperationD0Ev@Base 6.0.0
 _ZN5osgeo4proj9operation20PointMotionOperationD1Ev@Base 6.0.0
 _ZN5osgeo4proj9operation20PointMotionOperationD2Ev@Base 6.0.0
 _ZN5osgeo4proj9operation21ConcatenatedOperation21createComputeMetadataERKSt6vectorIN7dropbox6oxygen2nnISt10shared_ptrINS1_19CoordinateOperationEEEESaISA_EEb@Base 6.0.0
 _ZN5osgeo4proj9operation21ConcatenatedOperation6createERKNS0_4util11PropertyMapERKSt6vectorIN7dropbox6oxygen2nnISt10shared_ptrINS1_19CoordinateOperationEEEESaISE_EERKS7_INSA_ISB_INS0_8metadata18PositionalAccuracyEEEESaISM_EE@Base 6.0.0
 _ZN5osgeo4proj9operation21ConcatenatedOperationD0Ev@Base 6.0.0
 _ZN5osgeo4proj9operation21ConcatenatedOperationD1Ev@Base 6.0.0
 _ZN5osgeo4proj9operation21ConcatenatedOperationD2Ev@Base 6.0.0
 _ZN5osgeo4proj9operation21GeneralParameterValueD0Ev@Base 6.0.0
 _ZN5osgeo4proj9operation21GeneralParameterValueD1Ev@Base 6.0.0
 _ZN5osgeo4proj9operation21GeneralParameterValueD2Ev@Base 6.0.0
 _ZN5osgeo4proj9operation23OperationParameterValue6createERKN7dropbox6oxygen2nnISt10shared_ptrINS1_18OperationParameterEEEERKNS5_IS6_INS1_14ParameterValueEEEE@Base 6.0.0
 _ZN5osgeo4proj9operation23OperationParameterValueD0Ev@Base 6.0.0
 _ZN5osgeo4proj9operation23OperationParameterValueD1Ev@Base 6.0.0
 _ZN5osgeo4proj9operation23OperationParameterValueD2Ev@Base 6.0.0
 _ZN5osgeo4proj9operation25GeneralOperationParameterD0Ev@Base 6.0.0
 _ZN5osgeo4proj9operation25GeneralOperationParameterD1Ev@Base 6.0.0
 _ZN5osgeo4proj9operation25GeneralOperationParameterD2Ev@Base 6.0.0
 _ZN5osgeo4proj9operation26CoordinateOperationContext17setAreaOfInterestERKSt10shared_ptrINS0_8metadata6ExtentEE@Base 6.0.0
 _ZN5osgeo4proj9operation26CoordinateOperationContext18setDesiredAccuracyEd@Base 6.0.0
 _ZN5osgeo4proj9operation26CoordinateOperationContext18setIntermediateCRSERKSt6vectorISt4pairINSt7__cxx1112basic_stringIcSt11char_traitsIcESaIcEEESA_ESaISB_EE@Base 6.0.0
 _ZN5osgeo4proj9operation26CoordinateOperationContext19setSpatialCriterionENS2_16SpatialCriterionE@Base 6.0.0
 _ZN5osgeo4proj9operation26CoordinateOperationContext20setDiscardSupersededEb@Base 6.0.0
 _ZN5osgeo4proj9operation26CoordinateOperationContext22setGridAvailabilityUseENS2_19GridAvailabilityUseE@Base 6.0.0
 _ZN5osgeo4proj9operation26CoordinateOperationContext26setAllowUseIntermediateCRSENS2_18IntermediateCRSUseE@Base 6.0.0
 _ZN5osgeo4proj9operation26CoordinateOperationContext30setSourceAndTargetCRSExtentUseENS2_24SourceTargetCRSExtentUseE@Base 6.0.0
 _ZN5osgeo4proj9operation26CoordinateOperationContext30setUsePROJAlternativeGridNamesEb@Base 6.0.0
 _ZN5osgeo4proj9operation26CoordinateOperationContext6createERKSt10shared_ptrINS0_2io16AuthorityFactoryEERKS3_INS0_8metadata6ExtentEEd@Base 6.0.0
 _ZN5osgeo4proj9operation26CoordinateOperationContextD0Ev@Base 6.0.0
 _ZN5osgeo4proj9operation26CoordinateOperationContextD1Ev@Base 6.0.0
 _ZN5osgeo4proj9operation26CoordinateOperationContextD2Ev@Base 6.0.0
 _ZN5osgeo4proj9operation26CoordinateOperationFactory6createEv@Base 6.0.0
 _ZN5osgeo4proj9operation26CoordinateOperationFactoryD0Ev@Base 6.0.0
 _ZN5osgeo4proj9operation26CoordinateOperationFactoryD1Ev@Base 6.0.0
 _ZN5osgeo4proj9operation26CoordinateOperationFactoryD2Ev@Base 6.0.0
 _ZN9__gnu_cxx12__to_xstringINSt7__cxx1112basic_stringIcSt11char_traitsIcESaIcEEEcEET_PFiPT0_mPKS8_St9__va_listEmSB_z@Base 6.2.0
 _ZN9__gnu_cxx6__stoaIlicJiEEET0_PFT_PKT1_PPS3_DpT2_EPKcS5_PmS9_@Base 6.0.0
 _ZNK5osgeo4proj2cs16CoordinateSystem8axisListEv@Base 6.0.0
 _ZNK5osgeo4proj2cs20CoordinateSystemAxis12abbreviationB5cxx11Ev@Base 6.0.0
 _ZNK5osgeo4proj2cs20CoordinateSystemAxis12maximumValueEv@Base 6.0.0
 _ZNK5osgeo4proj2cs20CoordinateSystemAxis12minimumValueEv@Base 6.0.0
 _ZNK5osgeo4proj2cs20CoordinateSystemAxis4unitEv@Base 6.0.0
 _ZNK5osgeo4proj2cs20CoordinateSystemAxis8meridianEv@Base 6.0.0
 _ZNK5osgeo4proj2cs20CoordinateSystemAxis9directionEv@Base 6.0.0
 _ZNK5osgeo4proj2cs8Meridian9longitudeEv@Base 6.0.0
 _ZNK5osgeo4proj2io12WKTFormatter8isStrictEv@Base 6.0.0
 _ZNK5osgeo4proj2io12WKTFormatter8toStringB5cxx11Ev@Base 6.0.0
 _ZNK5osgeo4proj2io13JSONFormatter8toStringB5cxx11Ev@Base 6.2.0
 _ZNK5osgeo4proj2io14IWKTExportable11exportToWKTB5cxx11EPNS1_12WKTFormatterE@Base 6.0.0
 _ZNK5osgeo4proj2io15DatabaseContext11getMetadataEPKc@Base 6.0.0
 _ZNK5osgeo4proj2io15DatabaseContext14getAuthoritiesB5cxx11Ev@Base 6.0.0
 _ZNK5osgeo4proj2io15DatabaseContext15getSqliteHandleEv@Base 6.0.0
 _ZNK5osgeo4proj2io15DatabaseContext15lookForGridInfoERKNSt7__cxx1112basic_stringIcSt11char_traitsIcESaIcEEERS8_SB_SB_RbSC_SC_@Base 6.0.0
 _ZNK5osgeo4proj2io15DatabaseContext20getDatabaseStructureB5cxx11Ev@Base 6.0.0
 _ZNK5osgeo4proj2io15DatabaseContext7getPathB5cxx11Ev@Base 6.0.0
 _ZNK5osgeo4proj2io15IJSONExportable12exportToJSONB5cxx11EPNS1_13JSONFormatterE@Base 6.2.0
 _ZNK5osgeo4proj2io16AuthorityFactory11createDatumERKNSt7__cxx1112basic_stringIcSt11char_traitsIcESaIcEEE@Base 6.0.0
 _ZNK5osgeo4proj2io16AuthorityFactory12createExtentERKNSt7__cxx1112basic_stringIcSt11char_traitsIcESaIcEEE@Base 6.0.0
 _ZNK5osgeo4proj2io16AuthorityFactory12createObjectERKNSt7__cxx1112basic_stringIcSt11char_traitsIcESaIcEEE@Base 6.0.0
 _ZNK5osgeo4proj2io16AuthorityFactory12getAuthorityB5cxx11Ev@Base 6.0.0
 _ZNK5osgeo4proj2io16AuthorityFactory14getCRSInfoListB5cxx11Ev@Base 6.0.0
 _ZNK5osgeo4proj2io16AuthorityFactory15createEllipsoidERKNSt7__cxx1112basic_stringIcSt11char_traitsIcESaIcEEE@Base 6.0.0
 _ZNK5osgeo4proj2io16AuthorityFactory15databaseContextEv@Base 6.0.0
 _ZNK5osgeo4proj2io16AuthorityFactory16createConversionERKNSt7__cxx1112basic_stringIcSt11char_traitsIcESaIcEEE@Base 6.0.0
 _ZNK5osgeo4proj2io16AuthorityFactory17createCompoundCRSERKNSt7__cxx1112basic_stringIcSt11char_traitsIcESaIcEEE@Base 6.0.0
 _ZNK5osgeo4proj2io16AuthorityFactory17createGeodeticCRSERKNSt7__cxx1112basic_stringIcSt11char_traitsIcESaIcEEE@Base 6.0.0
 _ZNK5osgeo4proj2io16AuthorityFactory17createVerticalCRSERKNSt7__cxx1112basic_stringIcSt11char_traitsIcESaIcEEE@Base 6.0.0
 _ZNK5osgeo4proj2io16AuthorityFactory17getAuthorityCodesB5cxx11ERKNS2_10ObjectTypeEb@Base 6.0.0
 _ZNK5osgeo4proj2io16AuthorityFactory18createProjectedCRSERKNSt7__cxx1112basic_stringIcSt11char_traitsIcESaIcEEE@Base 6.0.0
 _ZNK5osgeo4proj2io16AuthorityFactory18getDescriptionTextERKNSt7__cxx1112basic_stringIcSt11char_traitsIcESaIcEEE@Base 6.0.0
 _ZNK5osgeo4proj2io16AuthorityFactory19createGeodeticDatumERKNSt7__cxx1112basic_stringIcSt11char_traitsIcESaIcEEE@Base 6.0.0
 _ZNK5osgeo4proj2io16AuthorityFactory19createGeographicCRSERKNSt7__cxx1112basic_stringIcSt11char_traitsIcESaIcEEE@Base 6.0.0
 _ZNK5osgeo4proj2io16AuthorityFactory19createPrimeMeridianERKNSt7__cxx1112basic_stringIcSt11char_traitsIcESaIcEEE@Base 6.0.0
 _ZNK5osgeo4proj2io16AuthorityFactory19createUnitOfMeasureERKNSt7__cxx1112basic_stringIcSt11char_traitsIcESaIcEEE@Base 6.0.0
 _ZNK5osgeo4proj2io16AuthorityFactory19createVerticalDatumERKNSt7__cxx1112basic_stringIcSt11char_traitsIcESaIcEEE@Base 6.0.0
 _ZNK5osgeo4proj2io16AuthorityFactory21createObjectsFromNameERKNSt7__cxx1112basic_stringIcSt11char_traitsIcESaIcEEERKSt6vectorINS2_10ObjectTypeESaISC_EEbm@Base 6.2.0
 _ZNK5osgeo4proj2io16AuthorityFactory21listAreaOfUseFromNameERKNSt7__cxx1112basic_stringIcSt11char_traitsIcESaIcEEEb@Base 6.0.0
 _ZNK5osgeo4proj2io16AuthorityFactory22createCoordinateSystemERKNSt7__cxx1112basic_stringIcSt11char_traitsIcESaIcEEE@Base 6.0.0
 _ZNK5osgeo4proj2io16AuthorityFactory24getOfficialNameFromAliasERKNSt7__cxx1112basic_stringIcSt11char_traitsIcESaIcEEESA_SA_bRS8_SB_SB_@Base 6.0.0
 _ZNK5osgeo4proj2io16AuthorityFactory25createCoordinateOperationERKNSt7__cxx1112basic_stringIcSt11char_traitsIcESaIcEEEb@Base 6.0.0
 _ZNK5osgeo4proj2io16AuthorityFactory29identifyBodyFromSemiMajorAxisB5cxx11Edd@Base 6.0.0
 _ZNK5osgeo4proj2io16AuthorityFactory31createCoordinateReferenceSystemERKNSt7__cxx1112basic_stringIcSt11char_traitsIcESaIcEEE@Base 6.0.0
 _ZNK5osgeo4proj2io16AuthorityFactory35createFromCRSCodesWithIntermediatesERKNSt7__cxx1112basic_stringIcSt11char_traitsIcESaIcEEESA_SA_SA_bbbRKSt6vectorISt4pairIS8_S8_ESaISD_EENS2_10ObjectTypeERKSB_IS8_SaIS8_EERKSt10shared_ptrINS0_8metadata6ExtentEESS_@Base 6.3.0
 _ZNK5osgeo4proj2io16AuthorityFactory40createFromCoordinateReferenceSystemCodesERKNSt7__cxx1112basic_stringIcSt11char_traitsIcESaIcEEESA_@Base 6.0.0
 _ZNK5osgeo4proj2io16AuthorityFactory40createFromCoordinateReferenceSystemCodesERKNSt7__cxx1112basic_stringIcSt11char_traitsIcESaIcEEESA_SA_SA_bbbbbRKSt10shared_ptrINS0_8metadata6ExtentEESG_@Base 6.3.0
 _ZNK5osgeo4proj2io16PROJStringParser11warningListB5cxx11Ev@Base 6.0.0
 _ZNK5osgeo4proj2io19PROJStringFormatter8toStringB5cxx11Ev@Base 6.0.0
 _ZNK5osgeo4proj2io21IPROJStringExportable18exportToPROJStringB5cxx11EPNS1_19PROJStringFormatterE@Base 6.0.0
 _ZNK5osgeo4proj2io28NoSuchAuthorityCodeException12getAuthorityB5cxx11Ev@Base 6.0.0
 _ZNK5osgeo4proj2io28NoSuchAuthorityCodeException16getAuthorityCodeB5cxx11Ev@Base 6.0.0
 _ZNK5osgeo4proj2io7WKTNode12lookForChildERKNSt7__cxx1112basic_stringIcSt11char_traitsIcESaIcEEEi@Base 6.0.0
 _ZNK5osgeo4proj2io7WKTNode19countChildrenOfNameERKNSt7__cxx1112basic_stringIcSt11char_traitsIcESaIcEEE@Base 6.0.0
 _ZNK5osgeo4proj2io7WKTNode5valueB5cxx11Ev@Base 6.0.0
 _ZNK5osgeo4proj2io7WKTNode8childrenEv@Base 6.0.0
 _ZNK5osgeo4proj2io7WKTNode8toStringB5cxx11Ev@Base 6.0.0
 _ZNK5osgeo4proj2io9WKTParser11warningListB5cxx11Ev@Base 6.0.0
 _ZNK5osgeo4proj3crs10DerivedCRS18derivingConversionEv@Base 6.0.0
 _ZNK5osgeo4proj3crs10DerivedCRS7baseCRSEv@Base 6.0.0
 _ZNK5osgeo4proj3crs11CompoundCRS25componentReferenceSystemsEv@Base 6.0.0
 _ZNK5osgeo4proj3crs11CompoundCRS8identifyB5cxx11ERKSt10shared_ptrINS0_2io16AuthorityFactoryEE@Base 6.0.0
 _ZNK5osgeo4proj3crs11GeodeticCRS12isGeocentricEv@Base 6.0.0
 _ZNK5osgeo4proj3crs11GeodeticCRS13primeMeridianEv@Base 6.0.0
 _ZNK5osgeo4proj3crs11GeodeticCRS13velocityModelEv@Base 6.0.0
 _ZNK5osgeo4proj3crs11GeodeticCRS5datumEv@Base 6.0.0
 _ZNK5osgeo4proj3crs11GeodeticCRS8identifyB5cxx11ERKSt10shared_ptrINS0_2io16AuthorityFactoryEE@Base 6.0.0
 _ZNK5osgeo4proj3crs11GeodeticCRS9ellipsoidEv@Base 6.0.0
 _ZNK5osgeo4proj3crs11TemporalCRS16coordinateSystemEv@Base 6.0.0
 _ZNK5osgeo4proj3crs11TemporalCRS5datumEv@Base 6.0.0
 _ZNK5osgeo4proj3crs11VerticalCRS10geoidModelEv@Base 6.0.0
 _ZNK5osgeo4proj3crs11VerticalCRS13velocityModelEv@Base 6.0.0
 _ZNK5osgeo4proj3crs11VerticalCRS16coordinateSystemEv@Base 6.0.0
 _ZNK5osgeo4proj3crs11VerticalCRS5datumEv@Base 6.0.0
 _ZNK5osgeo4proj3crs11VerticalCRS8identifyB5cxx11ERKSt10shared_ptrINS0_2io16AuthorityFactoryEE@Base 6.0.0
 _ZNK5osgeo4proj3crs12ProjectedCRS10demoteTo2DERKNSt7__cxx1112basic_stringIcSt11char_traitsIcESaIcEEERKSt10shared_ptrINS0_2io15DatabaseContextEE@Base 6.3.0
 _ZNK5osgeo4proj3crs12ProjectedCRS16coordinateSystemEv@Base 6.0.0
 _ZNK5osgeo4proj3crs12ProjectedCRS25alterParametersLinearUnitERKNS0_6common13UnitOfMeasureEb@Base 6.0.0
 _ZNK5osgeo4proj3crs12ProjectedCRS7baseCRSEv@Base 6.0.0
 _ZNK5osgeo4proj3crs12ProjectedCRS8identifyB5cxx11ERKSt10shared_ptrINS0_2io16AuthorityFactoryEE@Base 6.0.0
 _ZNK5osgeo4proj3crs13GeographicCRS10demoteTo2DERKNSt7__cxx1112basic_stringIcSt11char_traitsIcESaIcEEERKSt10shared_ptrINS0_2io15DatabaseContextEE@Base 6.3.0
 _ZNK5osgeo4proj3crs13GeographicCRS12is2DPartOf3DEN7dropbox6oxygen2nnIPKS2_EE@Base 6.0.0
 _ZNK5osgeo4proj3crs13GeographicCRS16coordinateSystemEv@Base 6.0.0
 _ZNK5osgeo4proj3crs13ParametricCRS16coordinateSystemEv@Base 6.0.0
 _ZNK5osgeo4proj3crs13ParametricCRS5datumEv@Base 6.0.0
 _ZNK5osgeo4proj3crs14EngineeringCRS5datumEv@Base 6.0.0
 _ZNK5osgeo4proj3crs18DerivedCRSTemplateINS1_24DerivedTemporalCRSTraitsEE7baseCRSEv@Base 6.0.0
 _ZNK5osgeo4proj3crs18DerivedCRSTemplateINS1_26DerivedParametricCRSTraitsEE7baseCRSEv@Base 6.0.0
 _ZNK5osgeo4proj3crs18DerivedCRSTemplateINS1_27DerivedEngineeringCRSTraitsEE7baseCRSEv@Base 6.0.0
 _ZNK5osgeo4proj3crs18DerivedGeodeticCRS12_exportToWKTEPNS0_2io12WKTFormatterE@Base 6.0.0
 _ZNK5osgeo4proj3crs18DerivedGeodeticCRS7baseCRSEv@Base 6.0.0
 _ZNK5osgeo4proj3crs18DerivedVerticalCRS7baseCRSEv@Base 6.0.0
 _ZNK5osgeo4proj3crs19DerivedProjectedCRS7baseCRSEv@Base 6.0.0
 _ZNK5osgeo4proj3crs20DerivedGeographicCRS7baseCRSEv@Base 6.0.0
 _ZNK5osgeo4proj3crs3CRS10demoteTo2DERKNSt7__cxx1112basic_stringIcSt11char_traitsIcESaIcEEERKSt10shared_ptrINS0_2io15DatabaseContextEE@Base 6.3.0
 _ZNK5osgeo4proj3crs3CRS11promoteTo3DERKNSt7__cxx1112basic_stringIcSt11char_traitsIcESaIcEEERKSt10shared_ptrINS0_2io15DatabaseContextEE@Base 6.2.1
 _ZNK5osgeo4proj3crs3CRS12shallowCloneEv@Base 6.0.0
 _ZNK5osgeo4proj3crs3CRS16alterGeodeticCRSERKN7dropbox6oxygen2nnISt10shared_ptrINS1_11GeodeticCRSEEEE@Base 6.0.0
 _ZNK5osgeo4proj3crs3CRS16getNonDeprecatedB5cxx11ERKN7dropbox6oxygen2nnISt10shared_ptrINS0_2io15DatabaseContextEEEE@Base 6.0.0
 _ZNK5osgeo4proj3crs3CRS17alterCSLinearUnitERKNS0_6common13UnitOfMeasureE@Base 6.0.0
 _ZNK5osgeo4proj3crs3CRS17canonicalBoundCRSEv@Base 6.0.0
 _ZNK5osgeo4proj3crs3CRS18extractGeodeticCRSEv@Base 6.0.0
 _ZNK5osgeo4proj3crs3CRS18extractVerticalCRSEv@Base 6.0.0
 _ZNK5osgeo4proj3crs3CRS20extractGeographicCRSEv@Base 6.0.0
 _ZNK5osgeo4proj3crs3CRS22stripVerticalComponentEv@Base 6.0.0
 _ZNK5osgeo4proj3crs3CRS31createBoundCRSToWGS84IfPossibleERKSt10shared_ptrINS0_2io15DatabaseContextEENS0_9operation26CoordinateOperationContext18IntermediateCRSUseE@Base 6.0.0
 _ZNK5osgeo4proj3crs3CRS7alterIdERKNSt7__cxx1112basic_stringIcSt11char_traitsIcESaIcEEESA_@Base 6.0.0
 _ZNK5osgeo4proj3crs3CRS8identifyB5cxx11ERKSt10shared_ptrINS0_2io16AuthorityFactoryEE@Base 6.0.0
 _ZNK5osgeo4proj3crs3CRS9alterNameERKNSt7__cxx1112basic_stringIcSt11char_traitsIcESaIcEEE@Base 6.0.0
 _ZNK5osgeo4proj3crs8BoundCRS14transformationEv@Base 6.0.0
 _ZNK5osgeo4proj3crs8BoundCRS28baseCRSWithCanonicalBoundCRSEv@Base 6.0.0
 _ZNK5osgeo4proj3crs8BoundCRS6hubCRSEv@Base 6.0.0
 _ZNK5osgeo4proj3crs8BoundCRS7baseCRSEv@Base 6.0.0
 _ZNK5osgeo4proj3crs9SingleCRS13datumEnsembleEv@Base 6.0.0
 _ZNK5osgeo4proj3crs9SingleCRS16coordinateSystemEv@Base 6.0.0
 _ZNK5osgeo4proj3crs9SingleCRS5datumEv@Base 6.0.0
 _ZNK5osgeo4proj4util11IComparable14isEquivalentToEPKS2_NS2_9CriterionERKSt10shared_ptrINS0_2io15DatabaseContextEE@Base 6.3.0
 _ZNK5osgeo4proj4util9Exception4whatEv@Base 6.0.0
 _ZNK5osgeo4proj4util9LocalName20toFullyQualifiedNameEv@Base 6.0.0
 _ZNK5osgeo4proj4util9LocalName5scopeEv@Base 6.0.0
 _ZNK5osgeo4proj4util9LocalName8toStringB5cxx11Ev@Base 6.0.0
 _ZNK5osgeo4proj4util9NameSpace4nameEv@Base 6.0.0
 _ZNK5osgeo4proj4util9NameSpace8isGlobalEv@Base 6.0.0
 _ZNK5osgeo4proj5datum13DatumEnsemble18positionalAccuracyEv@Base 6.0.0
 _ZNK5osgeo4proj5datum13DatumEnsemble6datumsEv@Base 6.0.0
 _ZNK5osgeo4proj5datum13PrimeMeridian9longitudeEv@Base 6.0.0
 _ZNK5osgeo4proj5datum13TemporalDatum14temporalOriginEv@Base 6.0.0
 _ZNK5osgeo4proj5datum13TemporalDatum8calendarB5cxx11Ev@Base 6.0.0
 _ZNK5osgeo4proj5datum22GeodeticReferenceFrame13primeMeridianEv@Base 6.0.0
 _ZNK5osgeo4proj5datum22GeodeticReferenceFrame29hasEquivalentNameToUsingAliasEPKNS0_6common16IdentifiedObjectERKSt10shared_ptrINS0_2io15DatabaseContextEE@Base 6.3.0
 _ZNK5osgeo4proj5datum22GeodeticReferenceFrame9ellipsoidEv@Base 6.0.0
 _ZNK5osgeo4proj5datum22VerticalReferenceFrame17realizationMethodEv@Base 6.0.0
 _ZNK5osgeo4proj5datum29DynamicGeodeticReferenceFrame19frameReferenceEpochEv@Base 6.0.0
 _ZNK5osgeo4proj5datum29DynamicGeodeticReferenceFrame20deformationModelNameB5cxx11Ev@Base 6.0.0
 _ZNK5osgeo4proj5datum29DynamicVerticalReferenceFrame19frameReferenceEpochEv@Base 6.0.0
 _ZNK5osgeo4proj5datum29DynamicVerticalReferenceFrame20deformationModelNameB5cxx11Ev@Base 6.0.0
 _ZNK5osgeo4proj5datum5Datum14conventionalRSEv@Base 6.0.0
 _ZNK5osgeo4proj5datum5Datum15publicationDateEv@Base 6.0.0
 _ZNK5osgeo4proj5datum5Datum16anchorDefinitionB5cxx11Ev@Base 6.0.0
 _ZNK5osgeo4proj5datum9Ellipsoid13celestialBodyB5cxx11Ev@Base 6.0.0
 _ZNK5osgeo4proj5datum9Ellipsoid13semiMajorAxisEv@Base 6.0.0
 _ZNK5osgeo4proj5datum9Ellipsoid13semiMinorAxisEv@Base 6.0.0
 _ZNK5osgeo4proj5datum9Ellipsoid14semiMedianAxisEv@Base 6.0.0
 _ZNK5osgeo4proj5datum9Ellipsoid17inverseFlatteningEv@Base 6.0.0
 _ZNK5osgeo4proj5datum9Ellipsoid19squaredEccentricityEv@Base 6.0.0
 _ZNK5osgeo4proj5datum9Ellipsoid20computeSemiMinorAxisEv@Base 6.0.0
 _ZNK5osgeo4proj5datum9Ellipsoid25computedInverseFlatteningEv@Base 6.0.0
 _ZNK5osgeo4proj5datum9Ellipsoid8identifyEv@Base 6.0.0
 _ZNK5osgeo4proj5datum9Ellipsoid8isSphereEv@Base 6.0.0
 _ZNK5osgeo4proj6common11ObjectUsage15_isEquivalentToEPKNS0_4util11IComparableENS4_9CriterionERKSt10shared_ptrINS0_2io15DatabaseContextEE@Base 6.3.0
 _ZNK5osgeo4proj6common11ObjectUsage15baseExportToWKTEPNS0_2io12WKTFormatterE@Base 6.0.0
 _ZNK5osgeo4proj6common11ObjectUsage16baseExportToJSONEPNS0_2io13JSONFormatterE@Base 6.2.0
 _ZNK5osgeo4proj6common11ObjectUsage7domainsEv@Base 6.0.0
 _ZNK5osgeo4proj6common12ObjectDomain12_exportToWKTEPNS0_2io12WKTFormatterE@Base 6.0.0
 _ZNK5osgeo4proj6common12ObjectDomain15_isEquivalentToEPKNS0_4util11IComparableENS4_9CriterionERKSt10shared_ptrINS0_2io15DatabaseContextEE@Base 6.3.0
 _ZNK5osgeo4proj6common12ObjectDomain16domainOfValidityEv@Base 6.0.0
 _ZNK5osgeo4proj6common12ObjectDomain5scopeB5cxx11Ev@Base 6.0.0
 _ZNK5osgeo4proj6common13UnitOfMeasure14conversionToSIEv@Base 6.0.0
 _ZNK5osgeo4proj6common13UnitOfMeasure4codeB5cxx11Ev@Base 6.0.0
 _ZNK5osgeo4proj6common13UnitOfMeasure4nameB5cxx11Ev@Base 6.0.0
 _ZNK5osgeo4proj6common13UnitOfMeasure4typeEv@Base 6.0.0
 _ZNK5osgeo4proj6common13UnitOfMeasure9codeSpaceB5cxx11Ev@Base 6.0.0
 _ZNK5osgeo4proj6common13UnitOfMeasureeqERKS2_@Base 6.0.0
 _ZNK5osgeo4proj6common13UnitOfMeasureneERKS2_@Base 6.0.0
 _ZNK5osgeo4proj6common16IdentifiedObject11getEPSGCodeEv@Base 6.0.0
 _ZNK5osgeo4proj6common16IdentifiedObject11identifiersEv@Base 6.0.0
 _ZNK5osgeo4proj6common16IdentifiedObject12isDeprecatedEv@Base 6.0.0
 _ZNK5osgeo4proj6common16IdentifiedObject29hasEquivalentNameToUsingAliasEPKS2_RKSt10shared_ptrINS0_2io15DatabaseContextEE@Base 6.3.0
 _ZNK5osgeo4proj6common16IdentifiedObject4nameEv@Base 6.0.0
 _ZNK5osgeo4proj6common16IdentifiedObject5aliasB5cxx11Ev@Base 6.0.0
 _ZNK5osgeo4proj6common16IdentifiedObject7aliasesEv@Base 6.0.0
 _ZNK5osgeo4proj6common16IdentifiedObject7nameStrB5cxx11Ev@Base 6.0.0
 _ZNK5osgeo4proj6common16IdentifiedObject7remarksB5cxx11Ev@Base 6.0.0
 _ZNK5osgeo4proj6common16IdentifiedObject8formatIDEPNS0_2io12WKTFormatterE@Base 6.0.0
 _ZNK5osgeo4proj6common7Measure10getSIValueEv@Base 6.0.0
 _ZNK5osgeo4proj6common7Measure13convertToUnitERKNS1_13UnitOfMeasureE@Base 6.0.0
 _ZNK5osgeo4proj6common7Measure4unitEv@Base 6.0.0
 _ZNK5osgeo4proj6common7Measure5valueEv@Base 6.0.0
 _ZNK5osgeo4proj6common7MeasureeqERKS2_@Base 6.0.0
 _ZNK5osgeo4proj6common8DateTime10isISO_8601Ev@Base 6.0.0
 _ZNK5osgeo4proj6common8DateTime8toStringB5cxx11Ev@Base 6.0.0
 _ZNK5osgeo4proj6common9DataEpoch15coordinateEpochEv@Base 6.0.0
 _ZNK5osgeo4proj8metadata10Identifier11descriptionB5cxx11Ev@Base 6.0.0
 _ZNK5osgeo4proj8metadata10Identifier3uriB5cxx11Ev@Base 6.0.0
 _ZNK5osgeo4proj8metadata10Identifier4codeB5cxx11Ev@Base 6.0.0
 _ZNK5osgeo4proj8metadata10Identifier7versionB5cxx11Ev@Base 6.0.0
 _ZNK5osgeo4proj8metadata10Identifier9authorityEv@Base 6.0.0
 _ZNK5osgeo4proj8metadata10Identifier9codeSpaceB5cxx11Ev@Base 6.0.0
 _ZNK5osgeo4proj8metadata14TemporalExtent10intersectsERKN7dropbox6oxygen2nnISt10shared_ptrIS2_EEE@Base 6.0.0
 _ZNK5osgeo4proj8metadata14TemporalExtent4stopB5cxx11Ev@Base 6.0.0
 _ZNK5osgeo4proj8metadata14TemporalExtent5startB5cxx11Ev@Base 6.0.0
 _ZNK5osgeo4proj8metadata14TemporalExtent8containsERKN7dropbox6oxygen2nnISt10shared_ptrIS2_EEE@Base 6.0.0
 _ZNK5osgeo4proj8metadata14VerticalExtent10intersectsERKN7dropbox6oxygen2nnISt10shared_ptrIS2_EEE@Base 6.0.0
 _ZNK5osgeo4proj8metadata14VerticalExtent12maximumValueEv@Base 6.0.0
 _ZNK5osgeo4proj8metadata14VerticalExtent12minimumValueEv@Base 6.0.0
 _ZNK5osgeo4proj8metadata14VerticalExtent4unitEv@Base 6.0.0
 _ZNK5osgeo4proj8metadata14VerticalExtent8containsERKN7dropbox6oxygen2nnISt10shared_ptrIS2_EEE@Base 6.0.0
 _ZNK5osgeo4proj8metadata18PositionalAccuracy5valueB5cxx11Ev@Base 6.0.0
 _ZNK5osgeo4proj8metadata21GeographicBoundingBox18eastBoundLongitudeEv@Base 6.0.0
 _ZNK5osgeo4proj8metadata21GeographicBoundingBox18northBoundLatitudeEv@Base 6.0.0
 _ZNK5osgeo4proj8metadata21GeographicBoundingBox18southBoundLatitudeEv@Base 6.0.0
 _ZNK5osgeo4proj8metadata21GeographicBoundingBox18westBoundLongitudeEv@Base 6.0.0
 _ZNK5osgeo4proj8metadata6Extent10intersectsERKN7dropbox6oxygen2nnISt10shared_ptrIS2_EEE@Base 6.0.0
 _ZNK5osgeo4proj8metadata6Extent11descriptionB5cxx11Ev@Base 6.0.0
 _ZNK5osgeo4proj8metadata6Extent12intersectionERKN7dropbox6oxygen2nnISt10shared_ptrIS2_EEE@Base 6.0.0
 _ZNK5osgeo4proj8metadata6Extent16temporalElementsEv@Base 6.0.0
 _ZNK5osgeo4proj8metadata6Extent16verticalElementsEv@Base 6.0.0
 _ZNK5osgeo4proj8metadata6Extent18geographicElementsEv@Base 6.0.0
 _ZNK5osgeo4proj8metadata6Extent8containsERKN7dropbox6oxygen2nnISt10shared_ptrIS2_EEE@Base 6.0.0
 _ZNK5osgeo4proj8metadata8Citation5titleB5cxx11Ev@Base 6.0.0
 _ZNK5osgeo4proj9operation10Conversion20convertToOtherMethodEi@Base 6.0.0
 _ZNK5osgeo4proj9operation10Conversion5isUTMERiRb@Base 6.0.0
 _ZNK5osgeo4proj9operation10Conversion7inverseEv@Base 6.0.0
 _ZNK5osgeo4proj9operation10Conversion8identifyEv@Base 6.0.0
 _ZNK5osgeo4proj9operation14ParameterValue11stringValueB5cxx11Ev@Base 6.0.0
 _ZNK5osgeo4proj9operation14ParameterValue12booleanValueEv@Base 6.0.0
 _ZNK5osgeo4proj9operation14ParameterValue12integerValueEv@Base 6.0.0
 _ZNK5osgeo4proj9operation14ParameterValue4typeEv@Base 6.0.0
 _ZNK5osgeo4proj9operation14ParameterValue5valueEv@Base 6.0.0
 _ZNK5osgeo4proj9operation14ParameterValue9valueFileB5cxx11Ev@Base 6.0.0
 _ZNK5osgeo4proj9operation14Transformation20getTOWGS84ParametersEv@Base 6.0.0
 _ZNK5osgeo4proj9operation14Transformation34substitutePROJAlternativeGridNamesEN7dropbox6oxygen2nnISt10shared_ptrINS0_2io15DatabaseContextEEEE@Base 6.0.0
 _ZNK5osgeo4proj9operation14Transformation7inverseEv@Base 6.0.0
 _ZNK5osgeo4proj9operation14Transformation9sourceCRSEv@Base 6.0.0
 _ZNK5osgeo4proj9operation14Transformation9targetCRSEv@Base 6.0.0
 _ZNK5osgeo4proj9operation15OperationMethod10parametersEv@Base 6.0.0
 _ZNK5osgeo4proj9operation15OperationMethod11getEPSGCodeEv@Base 6.0.0
 _ZNK5osgeo4proj9operation15OperationMethod15formulaCitationEv@Base 6.0.0
 _ZNK5osgeo4proj9operation15OperationMethod7formulaB5cxx11Ev@Base 6.0.0
 _ZNK5osgeo4proj9operation15SingleOperation11gridsNeededERKSt10shared_ptrINS0_2io15DatabaseContextEE@Base 6.0.0
 _ZNK5osgeo4proj9operation15SingleOperation14parameterValueERKNSt7__cxx1112basic_stringIcSt11char_traitsIcESaIcEEEi@Base 6.0.0
 _ZNK5osgeo4proj9operation15SingleOperation14parameterValueEi@Base 6.0.0
 _ZNK5osgeo4proj9operation15SingleOperation15parameterValuesEv@Base 6.0.0
 _ZNK5osgeo4proj9operation15SingleOperation18validateParametersB5cxx11Ev@Base 6.0.0
 _ZNK5osgeo4proj9operation15SingleOperation21parameterValueMeasureERKNSt7__cxx1112basic_stringIcSt11char_traitsIcESaIcEEEi@Base 6.0.0
 _ZNK5osgeo4proj9operation15SingleOperation21parameterValueMeasureEi@Base 6.0.0
 _ZNK5osgeo4proj9operation15SingleOperation21parameterValueNumericEiRKNS0_6common13UnitOfMeasureE@Base 6.0.0
 _ZNK5osgeo4proj9operation15SingleOperation6methodEv@Base 6.0.0
 _ZNK5osgeo4proj9operation18OperationParameter11getEPSGCodeEv@Base 6.0.0
 _ZNK5osgeo4proj9operation19CoordinateOperation12shallowCloneEv@Base 6.1.0
 _ZNK5osgeo4proj9operation19CoordinateOperation16interpolationCRSEv@Base 6.0.0
 _ZNK5osgeo4proj9operation19CoordinateOperation16operationVersionB5cxx11Ev@Base 6.0.0
 _ZNK5osgeo4proj9operation19CoordinateOperation18isPROJInstantiableERKSt10shared_ptrINS0_2io15DatabaseContextEE@Base 6.0.0
 _ZNK5osgeo4proj9operation19CoordinateOperation21sourceCoordinateEpochEv@Base 6.0.0
 _ZNK5osgeo4proj9operation19CoordinateOperation21targetCoordinateEpochEv@Base 6.0.0
 _ZNK5osgeo4proj9operation19CoordinateOperation25hasBallparkTransformationEv@Base 6.0.0
 _ZNK5osgeo4proj9operation19CoordinateOperation25normalizeForVisualizationEv@Base 6.1.0
 _ZNK5osgeo4proj9operation19CoordinateOperation29coordinateOperationAccuraciesEv@Base 6.0.0
 _ZNK5osgeo4proj9operation19CoordinateOperation9sourceCRSEv@Base 6.0.0
 _ZNK5osgeo4proj9operation19CoordinateOperation9targetCRSEv@Base 6.0.0
 _ZNK5osgeo4proj9operation21ConcatenatedOperation10operationsEv@Base 6.0.0
 _ZNK5osgeo4proj9operation21ConcatenatedOperation11gridsNeededERKSt10shared_ptrINS0_2io15DatabaseContextEE@Base 6.0.0
 _ZNK5osgeo4proj9operation21ConcatenatedOperation7inverseEv@Base 6.0.0
 _ZNK5osgeo4proj9operation23OperationParameterValue14parameterValueEv@Base 6.0.0
 _ZNK5osgeo4proj9operation23OperationParameterValue9parameterEv@Base 6.0.0
 _ZNK5osgeo4proj9operation26CoordinateOperationContext17getAreaOfInterestEv@Base 6.0.0
 _ZNK5osgeo4proj9operation26CoordinateOperationContext18getDesiredAccuracyEv@Base 6.0.0
 _ZNK5osgeo4proj9operation26CoordinateOperationContext18getIntermediateCRSB5cxx11Ev@Base 6.0.0
 _ZNK5osgeo4proj9operation26CoordinateOperationContext19getAuthorityFactoryEv@Base 6.0.0
 _ZNK5osgeo4proj9operation26CoordinateOperationContext19getSpatialCriterionEv@Base 6.0.0
 _ZNK5osgeo4proj9operation26CoordinateOperationContext20getDiscardSupersededEv@Base 6.0.0
 _ZNK5osgeo4proj9operation26CoordinateOperationContext22getGridAvailabilityUseEv@Base 6.0.0
 _ZNK5osgeo4proj9operation26CoordinateOperationContext26getAllowUseIntermediateCRSEv@Base 6.0.0
 _ZNK5osgeo4proj9operation26CoordinateOperationContext30getSourceAndTargetCRSExtentUseEv@Base 6.0.0
 _ZNK5osgeo4proj9operation26CoordinateOperationContext30getUsePROJAlternativeGridNamesEv@Base 6.0.0
 _ZNK5osgeo4proj9operation26CoordinateOperationFactory15createOperationERKN7dropbox6oxygen2nnISt10shared_ptrINS0_3crs3CRSEEEESC_@Base 6.0.0
 _ZNK5osgeo4proj9operation26CoordinateOperationFactory16createOperationsERKN7dropbox6oxygen2nnISt10shared_ptrINS0_3crs3CRSEEEESC_RKNS5_ISt10unique_ptrINS1_26CoordinateOperationContextESt14default_deleteISE_EEEE@Base 6.0.0
 _ZNSt10shared_ptrIN5osgeo4proj2cs8MeridianEED1Ev@Base 6.0.0
 _ZNSt10shared_ptrIN5osgeo4proj2cs8MeridianEED2Ev@Base 6.0.0
 _ZNSt10shared_ptrIN5osgeo4proj9operation14ParameterValueEED1Ev@Base 6.0.0
 _ZNSt10shared_ptrIN5osgeo4proj9operation14ParameterValueEED2Ev@Base 6.0.0
 _ZNSt11_Deque_baseIdSaIdEED1Ev@Base 6.3.0
 _ZNSt11_Deque_baseIdSaIdEED2Ev@Base 6.3.0
 _ZNSt12__shared_ptrIN5osgeo4proj3crs11CompoundCRSELN9__gnu_cxx12_Lock_policyE2EEC1ERKS6_@Base 6.1.0
 _ZNSt12__shared_ptrIN5osgeo4proj3crs11CompoundCRSELN9__gnu_cxx12_Lock_policyE2EEC2ERKS6_@Base 6.1.0
 _ZNSt12__shared_ptrIN5osgeo4proj3crs11GeodeticCRSELN9__gnu_cxx12_Lock_policyE2EEC1ERKS6_@Base 6.2.0
 _ZNSt12__shared_ptrIN5osgeo4proj3crs11GeodeticCRSELN9__gnu_cxx12_Lock_policyE2EEC2ERKS6_@Base 6.2.0
 _ZNSt12__shared_ptrIN5osgeo4proj3crs13GeographicCRSELN9__gnu_cxx12_Lock_policyE2EEC1ERKS6_@Base 6.3.1
 _ZNSt12__shared_ptrIN5osgeo4proj3crs13GeographicCRSELN9__gnu_cxx12_Lock_policyE2EEC2ERKS6_@Base 6.3.1
 _ZNSt12__shared_ptrIN5osgeo4proj3crs3CRSELN9__gnu_cxx12_Lock_policyE2EEC1ERKS6_@Base 6.0.0
 _ZNSt12__shared_ptrIN5osgeo4proj3crs3CRSELN9__gnu_cxx12_Lock_policyE2EEC1INS2_13GeographicCRSEvEERKS_IT_LS5_2EE@Base 6.0.0
 _ZNSt12__shared_ptrIN5osgeo4proj3crs3CRSELN9__gnu_cxx12_Lock_policyE2EEC2ERKS6_@Base 6.0.0
 _ZNSt12__shared_ptrIN5osgeo4proj3crs3CRSELN9__gnu_cxx12_Lock_policyE2EEC2INS2_13GeographicCRSEvEERKS_IT_LS5_2EE@Base 6.0.0
 _ZNSt12__shared_ptrIN5osgeo4proj4util10BaseObjectELN9__gnu_cxx12_Lock_policyE2EEC1INS1_6common16IdentifiedObjectEvEERKS_IT_LS5_2EE@Base 6.0.0
 _ZNSt12__shared_ptrIN5osgeo4proj4util10BaseObjectELN9__gnu_cxx12_Lock_policyE2EEC2INS1_6common16IdentifiedObjectEvEERKS_IT_LS5_2EE@Base 6.0.0
 _ZNSt12__shared_ptrIN5osgeo4proj5datum13PrimeMeridianELN9__gnu_cxx12_Lock_policyE2EEC1ERKS6_@Base 6.2.0
 _ZNSt12__shared_ptrIN5osgeo4proj5datum13PrimeMeridianELN9__gnu_cxx12_Lock_policyE2EEC2ERKS6_@Base 6.2.0
 _ZNSt12__shared_ptrIN5osgeo4proj5datum9EllipsoidELN9__gnu_cxx12_Lock_policyE2EEC1ERKS6_@Base 6.2.0
 _ZNSt12__shared_ptrIN5osgeo4proj5datum9EllipsoidELN9__gnu_cxx12_Lock_policyE2EEC2ERKS6_@Base 6.2.0
 _ZNSt12__shared_ptrIN5osgeo4proj9operation10ConversionELN9__gnu_cxx12_Lock_policyE2EEC1ERKS6_@Base 6.1.0
 _ZNSt12__shared_ptrIN5osgeo4proj9operation10ConversionELN9__gnu_cxx12_Lock_policyE2EEC2ERKS6_@Base 6.1.0
 _ZNSt12__shared_ptrIN5osgeo4proj9operation14ParameterValueELN9__gnu_cxx12_Lock_policyE2EEC1ERKS6_@Base 6.0.0
 _ZNSt12__shared_ptrIN5osgeo4proj9operation14ParameterValueELN9__gnu_cxx12_Lock_policyE2EEC2ERKS6_@Base 6.0.0
 _ZNSt12__shared_ptrIN5osgeo4proj9operation14TransformationELN9__gnu_cxx12_Lock_policyE2EEC1ERKS6_@Base 6.0.0
 _ZNSt12__shared_ptrIN5osgeo4proj9operation14TransformationELN9__gnu_cxx12_Lock_policyE2EEC2ERKS6_@Base 6.0.0
 _ZNSt12__shared_ptrIN5osgeo4proj9operation19CoordinateOperationELN9__gnu_cxx12_Lock_policyE2EEC1ERKS6_@Base 6.0.0
 _ZNSt12__shared_ptrIN5osgeo4proj9operation19CoordinateOperationELN9__gnu_cxx12_Lock_policyE2EEC1INS2_10ConversionEvEERKS_IT_LS5_2EE@Base 6.0.0
 _ZNSt12__shared_ptrIN5osgeo4proj9operation19CoordinateOperationELN9__gnu_cxx12_Lock_policyE2EEC2ERKS6_@Base 6.0.0
 _ZNSt12__shared_ptrIN5osgeo4proj9operation19CoordinateOperationELN9__gnu_cxx12_Lock_policyE2EEC2INS2_10ConversionEvEERKS_IT_LS5_2EE@Base 6.0.0
 _ZNSt13_Bvector_baseISaIbEE13_M_deallocateEv@Base 6.0.0
 _ZNSt15_Sp_counted_ptrIDnLN9__gnu_cxx12_Lock_policyE2EE10_M_disposeEv@Base 6.0.0
 _ZNSt15_Sp_counted_ptrIPN5osgeo4proj2cs10VerticalCSELN9__gnu_cxx12_Lock_policyE2EE10_M_destroyEv@Base 6.0.0
 _ZNSt15_Sp_counted_ptrIPN5osgeo4proj2cs10VerticalCSELN9__gnu_cxx12_Lock_policyE2EE10_M_disposeEv@Base 6.0.0
 _ZNSt15_Sp_counted_ptrIPN5osgeo4proj2cs10VerticalCSELN9__gnu_cxx12_Lock_policyE2EE14_M_get_deleterERKSt9type_info@Base 6.0.0
 _ZNSt15_Sp_counted_ptrIPN5osgeo4proj2cs10VerticalCSELN9__gnu_cxx12_Lock_policyE2EED0Ev@Base 6.0.0
 _ZNSt15_Sp_counted_ptrIPN5osgeo4proj2cs10VerticalCSELN9__gnu_cxx12_Lock_policyE2EED1Ev@Base 6.0.0
 _ZNSt15_Sp_counted_ptrIPN5osgeo4proj2cs10VerticalCSELN9__gnu_cxx12_Lock_policyE2EED2Ev@Base 6.0.0
 _ZNSt15_Sp_counted_ptrIPN5osgeo4proj2cs11CartesianCSELN9__gnu_cxx12_Lock_policyE2EE10_M_destroyEv@Base 6.0.0
 _ZNSt15_Sp_counted_ptrIPN5osgeo4proj2cs11CartesianCSELN9__gnu_cxx12_Lock_policyE2EE10_M_disposeEv@Base 6.0.0
 _ZNSt15_Sp_counted_ptrIPN5osgeo4proj2cs11CartesianCSELN9__gnu_cxx12_Lock_policyE2EE14_M_get_deleterERKSt9type_info@Base 6.0.0
 _ZNSt15_Sp_counted_ptrIPN5osgeo4proj2cs11CartesianCSELN9__gnu_cxx12_Lock_policyE2EED0Ev@Base 6.0.0
 _ZNSt15_Sp_counted_ptrIPN5osgeo4proj2cs11CartesianCSELN9__gnu_cxx12_Lock_policyE2EED1Ev@Base 6.0.0
 _ZNSt15_Sp_counted_ptrIPN5osgeo4proj2cs11CartesianCSELN9__gnu_cxx12_Lock_policyE2EED2Ev@Base 6.0.0
 _ZNSt15_Sp_counted_ptrIPN5osgeo4proj2cs11SphericalCSELN9__gnu_cxx12_Lock_policyE2EE10_M_destroyEv@Base 6.0.0
 _ZNSt15_Sp_counted_ptrIPN5osgeo4proj2cs11SphericalCSELN9__gnu_cxx12_Lock_policyE2EE10_M_disposeEv@Base 6.0.0
 _ZNSt15_Sp_counted_ptrIPN5osgeo4proj2cs11SphericalCSELN9__gnu_cxx12_Lock_policyE2EE14_M_get_deleterERKSt9type_info@Base 6.0.0
 _ZNSt15_Sp_counted_ptrIPN5osgeo4proj2cs11SphericalCSELN9__gnu_cxx12_Lock_policyE2EED0Ev@Base 6.0.0
 _ZNSt15_Sp_counted_ptrIPN5osgeo4proj2cs11SphericalCSELN9__gnu_cxx12_Lock_policyE2EED1Ev@Base 6.0.0
 _ZNSt15_Sp_counted_ptrIPN5osgeo4proj2cs11SphericalCSELN9__gnu_cxx12_Lock_policyE2EED2Ev@Base 6.0.0
 _ZNSt15_Sp_counted_ptrIPN5osgeo4proj2cs12ParametricCSELN9__gnu_cxx12_Lock_policyE2EE10_M_destroyEv@Base 6.0.0
 _ZNSt15_Sp_counted_ptrIPN5osgeo4proj2cs12ParametricCSELN9__gnu_cxx12_Lock_policyE2EE10_M_disposeEv@Base 6.0.0
 _ZNSt15_Sp_counted_ptrIPN5osgeo4proj2cs12ParametricCSELN9__gnu_cxx12_Lock_policyE2EE14_M_get_deleterERKSt9type_info@Base 6.0.0
 _ZNSt15_Sp_counted_ptrIPN5osgeo4proj2cs12ParametricCSELN9__gnu_cxx12_Lock_policyE2EED0Ev@Base 6.0.0
 _ZNSt15_Sp_counted_ptrIPN5osgeo4proj2cs12ParametricCSELN9__gnu_cxx12_Lock_policyE2EED1Ev@Base 6.0.0
 _ZNSt15_Sp_counted_ptrIPN5osgeo4proj2cs12ParametricCSELN9__gnu_cxx12_Lock_policyE2EED2Ev@Base 6.0.0
 _ZNSt15_Sp_counted_ptrIPN5osgeo4proj2cs13EllipsoidalCSELN9__gnu_cxx12_Lock_policyE2EE10_M_destroyEv@Base 6.0.0
 _ZNSt15_Sp_counted_ptrIPN5osgeo4proj2cs13EllipsoidalCSELN9__gnu_cxx12_Lock_policyE2EE10_M_disposeEv@Base 6.0.0
 _ZNSt15_Sp_counted_ptrIPN5osgeo4proj2cs13EllipsoidalCSELN9__gnu_cxx12_Lock_policyE2EE14_M_get_deleterERKSt9type_info@Base 6.0.0
 _ZNSt15_Sp_counted_ptrIPN5osgeo4proj2cs13EllipsoidalCSELN9__gnu_cxx12_Lock_policyE2EED0Ev@Base 6.0.0
 _ZNSt15_Sp_counted_ptrIPN5osgeo4proj2cs13EllipsoidalCSELN9__gnu_cxx12_Lock_policyE2EED1Ev@Base 6.0.0
 _ZNSt15_Sp_counted_ptrIPN5osgeo4proj2cs13EllipsoidalCSELN9__gnu_cxx12_Lock_policyE2EED2Ev@Base 6.0.0
 _ZNSt15_Sp_counted_ptrIPN5osgeo4proj2cs15TemporalCountCSELN9__gnu_cxx12_Lock_policyE2EE10_M_destroyEv@Base 6.0.0
 _ZNSt15_Sp_counted_ptrIPN5osgeo4proj2cs15TemporalCountCSELN9__gnu_cxx12_Lock_policyE2EE10_M_disposeEv@Base 6.0.0
 _ZNSt15_Sp_counted_ptrIPN5osgeo4proj2cs15TemporalCountCSELN9__gnu_cxx12_Lock_policyE2EE14_M_get_deleterERKSt9type_info@Base 6.0.0
 _ZNSt15_Sp_counted_ptrIPN5osgeo4proj2cs15TemporalCountCSELN9__gnu_cxx12_Lock_policyE2EED0Ev@Base 6.0.0
 _ZNSt15_Sp_counted_ptrIPN5osgeo4proj2cs15TemporalCountCSELN9__gnu_cxx12_Lock_policyE2EED1Ev@Base 6.0.0
 _ZNSt15_Sp_counted_ptrIPN5osgeo4proj2cs15TemporalCountCSELN9__gnu_cxx12_Lock_policyE2EED2Ev@Base 6.0.0
 _ZNSt15_Sp_counted_ptrIPN5osgeo4proj2cs17TemporalMeasureCSELN9__gnu_cxx12_Lock_policyE2EE10_M_destroyEv@Base 6.0.0
 _ZNSt15_Sp_counted_ptrIPN5osgeo4proj2cs17TemporalMeasureCSELN9__gnu_cxx12_Lock_policyE2EE10_M_disposeEv@Base 6.0.0
 _ZNSt15_Sp_counted_ptrIPN5osgeo4proj2cs17TemporalMeasureCSELN9__gnu_cxx12_Lock_policyE2EE14_M_get_deleterERKSt9type_info@Base 6.0.0
 _ZNSt15_Sp_counted_ptrIPN5osgeo4proj2cs17TemporalMeasureCSELN9__gnu_cxx12_Lock_policyE2EED0Ev@Base 6.0.0
 _ZNSt15_Sp_counted_ptrIPN5osgeo4proj2cs17TemporalMeasureCSELN9__gnu_cxx12_Lock_policyE2EED1Ev@Base 6.0.0
 _ZNSt15_Sp_counted_ptrIPN5osgeo4proj2cs17TemporalMeasureCSELN9__gnu_cxx12_Lock_policyE2EED2Ev@Base 6.0.0
 _ZNSt15_Sp_counted_ptrIPN5osgeo4proj2cs18DateTimeTemporalCSELN9__gnu_cxx12_Lock_policyE2EE10_M_destroyEv@Base 6.0.0
 _ZNSt15_Sp_counted_ptrIPN5osgeo4proj2cs18DateTimeTemporalCSELN9__gnu_cxx12_Lock_policyE2EE10_M_disposeEv@Base 6.0.0
 _ZNSt15_Sp_counted_ptrIPN5osgeo4proj2cs18DateTimeTemporalCSELN9__gnu_cxx12_Lock_policyE2EE14_M_get_deleterERKSt9type_info@Base 6.0.0
 _ZNSt15_Sp_counted_ptrIPN5osgeo4proj2cs18DateTimeTemporalCSELN9__gnu_cxx12_Lock_policyE2EED0Ev@Base 6.0.0
 _ZNSt15_Sp_counted_ptrIPN5osgeo4proj2cs18DateTimeTemporalCSELN9__gnu_cxx12_Lock_policyE2EED1Ev@Base 6.0.0
 _ZNSt15_Sp_counted_ptrIPN5osgeo4proj2cs18DateTimeTemporalCSELN9__gnu_cxx12_Lock_policyE2EED2Ev@Base 6.0.0
 _ZNSt15_Sp_counted_ptrIPN5osgeo4proj2cs20CoordinateSystemAxisELN9__gnu_cxx12_Lock_policyE2EE10_M_destroyEv@Base 6.0.0
 _ZNSt15_Sp_counted_ptrIPN5osgeo4proj2cs20CoordinateSystemAxisELN9__gnu_cxx12_Lock_policyE2EE10_M_disposeEv@Base 6.0.0
 _ZNSt15_Sp_counted_ptrIPN5osgeo4proj2cs20CoordinateSystemAxisELN9__gnu_cxx12_Lock_policyE2EE14_M_get_deleterERKSt9type_info@Base 6.0.0
 _ZNSt15_Sp_counted_ptrIPN5osgeo4proj2cs20CoordinateSystemAxisELN9__gnu_cxx12_Lock_policyE2EED0Ev@Base 6.0.0
 _ZNSt15_Sp_counted_ptrIPN5osgeo4proj2cs20CoordinateSystemAxisELN9__gnu_cxx12_Lock_policyE2EED1Ev@Base 6.0.0
 _ZNSt15_Sp_counted_ptrIPN5osgeo4proj2cs20CoordinateSystemAxisELN9__gnu_cxx12_Lock_policyE2EED2Ev@Base 6.0.0
 _ZNSt15_Sp_counted_ptrIPN5osgeo4proj2cs8MeridianELN9__gnu_cxx12_Lock_policyE2EE10_M_destroyEv@Base 6.0.0
 _ZNSt15_Sp_counted_ptrIPN5osgeo4proj2cs8MeridianELN9__gnu_cxx12_Lock_policyE2EE10_M_disposeEv@Base 6.0.0
 _ZNSt15_Sp_counted_ptrIPN5osgeo4proj2cs8MeridianELN9__gnu_cxx12_Lock_policyE2EE14_M_get_deleterERKSt9type_info@Base 6.0.0
 _ZNSt15_Sp_counted_ptrIPN5osgeo4proj2cs8MeridianELN9__gnu_cxx12_Lock_policyE2EED0Ev@Base 6.0.0
 _ZNSt15_Sp_counted_ptrIPN5osgeo4proj2cs8MeridianELN9__gnu_cxx12_Lock_policyE2EED1Ev@Base 6.0.0
 _ZNSt15_Sp_counted_ptrIPN5osgeo4proj2cs8MeridianELN9__gnu_cxx12_Lock_policyE2EED2Ev@Base 6.0.0
 _ZNSt15_Sp_counted_ptrIPN5osgeo4proj2cs9OrdinalCSELN9__gnu_cxx12_Lock_policyE2EE10_M_destroyEv@Base 6.0.0
 _ZNSt15_Sp_counted_ptrIPN5osgeo4proj2cs9OrdinalCSELN9__gnu_cxx12_Lock_policyE2EE10_M_disposeEv@Base 6.0.0
 _ZNSt15_Sp_counted_ptrIPN5osgeo4proj2cs9OrdinalCSELN9__gnu_cxx12_Lock_policyE2EE14_M_get_deleterERKSt9type_info@Base 6.0.0
 _ZNSt15_Sp_counted_ptrIPN5osgeo4proj2cs9OrdinalCSELN9__gnu_cxx12_Lock_policyE2EED0Ev@Base 6.0.0
 _ZNSt15_Sp_counted_ptrIPN5osgeo4proj2cs9OrdinalCSELN9__gnu_cxx12_Lock_policyE2EED1Ev@Base 6.0.0
 _ZNSt15_Sp_counted_ptrIPN5osgeo4proj2cs9OrdinalCSELN9__gnu_cxx12_Lock_policyE2EED2Ev@Base 6.0.0
 _ZNSt15_Sp_counted_ptrIPN5osgeo4proj2io15DatabaseContextELN9__gnu_cxx12_Lock_policyE2EE10_M_destroyEv@Base 6.0.0
 _ZNSt15_Sp_counted_ptrIPN5osgeo4proj2io15DatabaseContextELN9__gnu_cxx12_Lock_policyE2EE10_M_disposeEv@Base 6.0.0
 _ZNSt15_Sp_counted_ptrIPN5osgeo4proj2io15DatabaseContextELN9__gnu_cxx12_Lock_policyE2EE14_M_get_deleterERKSt9type_info@Base 6.0.0
 _ZNSt15_Sp_counted_ptrIPN5osgeo4proj2io15DatabaseContextELN9__gnu_cxx12_Lock_policyE2EED0Ev@Base 6.0.0
 _ZNSt15_Sp_counted_ptrIPN5osgeo4proj2io15DatabaseContextELN9__gnu_cxx12_Lock_policyE2EED1Ev@Base 6.0.0
 _ZNSt15_Sp_counted_ptrIPN5osgeo4proj2io15DatabaseContextELN9__gnu_cxx12_Lock_policyE2EED2Ev@Base 6.0.0
 _ZNSt15_Sp_counted_ptrIPN5osgeo4proj2io16AuthorityFactoryELN9__gnu_cxx12_Lock_policyE2EE10_M_destroyEv@Base 6.0.0
 _ZNSt15_Sp_counted_ptrIPN5osgeo4proj2io16AuthorityFactoryELN9__gnu_cxx12_Lock_policyE2EE10_M_disposeEv@Base 6.0.0
 _ZNSt15_Sp_counted_ptrIPN5osgeo4proj2io16AuthorityFactoryELN9__gnu_cxx12_Lock_policyE2EE14_M_get_deleterERKSt9type_info@Base 6.0.0
 _ZNSt15_Sp_counted_ptrIPN5osgeo4proj2io16AuthorityFactoryELN9__gnu_cxx12_Lock_policyE2EED0Ev@Base 6.0.0
 _ZNSt15_Sp_counted_ptrIPN5osgeo4proj2io16AuthorityFactoryELN9__gnu_cxx12_Lock_policyE2EED1Ev@Base 6.0.0
 _ZNSt15_Sp_counted_ptrIPN5osgeo4proj2io16AuthorityFactoryELN9__gnu_cxx12_Lock_policyE2EED2Ev@Base 6.0.0
 _ZNSt15_Sp_counted_ptrIPN5osgeo4proj3crs11CompoundCRSELN9__gnu_cxx12_Lock_policyE2EE10_M_destroyEv@Base 6.0.0
 _ZNSt15_Sp_counted_ptrIPN5osgeo4proj3crs11CompoundCRSELN9__gnu_cxx12_Lock_policyE2EE10_M_disposeEv@Base 6.0.0
 _ZNSt15_Sp_counted_ptrIPN5osgeo4proj3crs11CompoundCRSELN9__gnu_cxx12_Lock_policyE2EE14_M_get_deleterERKSt9type_info@Base 6.0.0
 _ZNSt15_Sp_counted_ptrIPN5osgeo4proj3crs11CompoundCRSELN9__gnu_cxx12_Lock_policyE2EED0Ev@Base 6.0.0
 _ZNSt15_Sp_counted_ptrIPN5osgeo4proj3crs11CompoundCRSELN9__gnu_cxx12_Lock_policyE2EED1Ev@Base 6.0.0
 _ZNSt15_Sp_counted_ptrIPN5osgeo4proj3crs11CompoundCRSELN9__gnu_cxx12_Lock_policyE2EED2Ev@Base 6.0.0
 _ZNSt15_Sp_counted_ptrIPN5osgeo4proj3crs11GeodeticCRSELN9__gnu_cxx12_Lock_policyE2EE10_M_destroyEv@Base 6.0.0
 _ZNSt15_Sp_counted_ptrIPN5osgeo4proj3crs11GeodeticCRSELN9__gnu_cxx12_Lock_policyE2EE10_M_disposeEv@Base 6.0.0
 _ZNSt15_Sp_counted_ptrIPN5osgeo4proj3crs11GeodeticCRSELN9__gnu_cxx12_Lock_policyE2EE14_M_get_deleterERKSt9type_info@Base 6.0.0
 _ZNSt15_Sp_counted_ptrIPN5osgeo4proj3crs11GeodeticCRSELN9__gnu_cxx12_Lock_policyE2EED0Ev@Base 6.0.0
 _ZNSt15_Sp_counted_ptrIPN5osgeo4proj3crs11GeodeticCRSELN9__gnu_cxx12_Lock_policyE2EED1Ev@Base 6.0.0
 _ZNSt15_Sp_counted_ptrIPN5osgeo4proj3crs11GeodeticCRSELN9__gnu_cxx12_Lock_policyE2EED2Ev@Base 6.0.0
 _ZNSt15_Sp_counted_ptrIPN5osgeo4proj3crs11TemporalCRSELN9__gnu_cxx12_Lock_policyE2EE10_M_destroyEv@Base 6.0.0
 _ZNSt15_Sp_counted_ptrIPN5osgeo4proj3crs11TemporalCRSELN9__gnu_cxx12_Lock_policyE2EE10_M_disposeEv@Base 6.0.0
 _ZNSt15_Sp_counted_ptrIPN5osgeo4proj3crs11TemporalCRSELN9__gnu_cxx12_Lock_policyE2EE14_M_get_deleterERKSt9type_info@Base 6.0.0
 _ZNSt15_Sp_counted_ptrIPN5osgeo4proj3crs11TemporalCRSELN9__gnu_cxx12_Lock_policyE2EED0Ev@Base 6.0.0
 _ZNSt15_Sp_counted_ptrIPN5osgeo4proj3crs11TemporalCRSELN9__gnu_cxx12_Lock_policyE2EED1Ev@Base 6.0.0
 _ZNSt15_Sp_counted_ptrIPN5osgeo4proj3crs11TemporalCRSELN9__gnu_cxx12_Lock_policyE2EED2Ev@Base 6.0.0
 _ZNSt15_Sp_counted_ptrIPN5osgeo4proj3crs11VerticalCRSELN9__gnu_cxx12_Lock_policyE2EE10_M_destroyEv@Base 6.0.0
 _ZNSt15_Sp_counted_ptrIPN5osgeo4proj3crs11VerticalCRSELN9__gnu_cxx12_Lock_policyE2EE10_M_disposeEv@Base 6.0.0
 _ZNSt15_Sp_counted_ptrIPN5osgeo4proj3crs11VerticalCRSELN9__gnu_cxx12_Lock_policyE2EE14_M_get_deleterERKSt9type_info@Base 6.0.0
 _ZNSt15_Sp_counted_ptrIPN5osgeo4proj3crs11VerticalCRSELN9__gnu_cxx12_Lock_policyE2EED0Ev@Base 6.0.0
 _ZNSt15_Sp_counted_ptrIPN5osgeo4proj3crs11VerticalCRSELN9__gnu_cxx12_Lock_policyE2EED1Ev@Base 6.0.0
 _ZNSt15_Sp_counted_ptrIPN5osgeo4proj3crs11VerticalCRSELN9__gnu_cxx12_Lock_policyE2EED2Ev@Base 6.0.0
 _ZNSt15_Sp_counted_ptrIPN5osgeo4proj3crs12ProjectedCRSELN9__gnu_cxx12_Lock_policyE2EE10_M_destroyEv@Base 6.0.0
 _ZNSt15_Sp_counted_ptrIPN5osgeo4proj3crs12ProjectedCRSELN9__gnu_cxx12_Lock_policyE2EE10_M_disposeEv@Base 6.0.0
 _ZNSt15_Sp_counted_ptrIPN5osgeo4proj3crs12ProjectedCRSELN9__gnu_cxx12_Lock_policyE2EE14_M_get_deleterERKSt9type_info@Base 6.0.0
 _ZNSt15_Sp_counted_ptrIPN5osgeo4proj3crs12ProjectedCRSELN9__gnu_cxx12_Lock_policyE2EED0Ev@Base 6.0.0
 _ZNSt15_Sp_counted_ptrIPN5osgeo4proj3crs12ProjectedCRSELN9__gnu_cxx12_Lock_policyE2EED1Ev@Base 6.0.0
 _ZNSt15_Sp_counted_ptrIPN5osgeo4proj3crs12ProjectedCRSELN9__gnu_cxx12_Lock_policyE2EED2Ev@Base 6.0.0
 _ZNSt15_Sp_counted_ptrIPN5osgeo4proj3crs13GeographicCRSELN9__gnu_cxx12_Lock_policyE2EE10_M_destroyEv@Base 6.0.0
 _ZNSt15_Sp_counted_ptrIPN5osgeo4proj3crs13GeographicCRSELN9__gnu_cxx12_Lock_policyE2EE10_M_disposeEv@Base 6.0.0
 _ZNSt15_Sp_counted_ptrIPN5osgeo4proj3crs13GeographicCRSELN9__gnu_cxx12_Lock_policyE2EE14_M_get_deleterERKSt9type_info@Base 6.0.0
 _ZNSt15_Sp_counted_ptrIPN5osgeo4proj3crs13GeographicCRSELN9__gnu_cxx12_Lock_policyE2EED0Ev@Base 6.0.0
 _ZNSt15_Sp_counted_ptrIPN5osgeo4proj3crs13GeographicCRSELN9__gnu_cxx12_Lock_policyE2EED1Ev@Base 6.0.0
 _ZNSt15_Sp_counted_ptrIPN5osgeo4proj3crs13GeographicCRSELN9__gnu_cxx12_Lock_policyE2EED2Ev@Base 6.0.0
 _ZNSt15_Sp_counted_ptrIPN5osgeo4proj3crs13ParametricCRSELN9__gnu_cxx12_Lock_policyE2EE10_M_destroyEv@Base 6.0.0
 _ZNSt15_Sp_counted_ptrIPN5osgeo4proj3crs13ParametricCRSELN9__gnu_cxx12_Lock_policyE2EE10_M_disposeEv@Base 6.0.0
 _ZNSt15_Sp_counted_ptrIPN5osgeo4proj3crs13ParametricCRSELN9__gnu_cxx12_Lock_policyE2EE14_M_get_deleterERKSt9type_info@Base 6.0.0
 _ZNSt15_Sp_counted_ptrIPN5osgeo4proj3crs13ParametricCRSELN9__gnu_cxx12_Lock_policyE2EED0Ev@Base 6.0.0
 _ZNSt15_Sp_counted_ptrIPN5osgeo4proj3crs13ParametricCRSELN9__gnu_cxx12_Lock_policyE2EED1Ev@Base 6.0.0
 _ZNSt15_Sp_counted_ptrIPN5osgeo4proj3crs13ParametricCRSELN9__gnu_cxx12_Lock_policyE2EED2Ev@Base 6.0.0
 _ZNSt15_Sp_counted_ptrIPN5osgeo4proj3crs14EngineeringCRSELN9__gnu_cxx12_Lock_policyE2EE10_M_destroyEv@Base 6.0.0
 _ZNSt15_Sp_counted_ptrIPN5osgeo4proj3crs14EngineeringCRSELN9__gnu_cxx12_Lock_policyE2EE10_M_disposeEv@Base 6.0.0
 _ZNSt15_Sp_counted_ptrIPN5osgeo4proj3crs14EngineeringCRSELN9__gnu_cxx12_Lock_policyE2EE14_M_get_deleterERKSt9type_info@Base 6.0.0
 _ZNSt15_Sp_counted_ptrIPN5osgeo4proj3crs14EngineeringCRSELN9__gnu_cxx12_Lock_policyE2EED0Ev@Base 6.0.0
 _ZNSt15_Sp_counted_ptrIPN5osgeo4proj3crs14EngineeringCRSELN9__gnu_cxx12_Lock_policyE2EED1Ev@Base 6.0.0
 _ZNSt15_Sp_counted_ptrIPN5osgeo4proj3crs14EngineeringCRSELN9__gnu_cxx12_Lock_policyE2EED2Ev@Base 6.0.0
 _ZNSt15_Sp_counted_ptrIPN5osgeo4proj3crs18DerivedCRSTemplateINS2_24DerivedTemporalCRSTraitsEEELN9__gnu_cxx12_Lock_policyE2EE10_M_destroyEv@Base 6.0.0
 _ZNSt15_Sp_counted_ptrIPN5osgeo4proj3crs18DerivedCRSTemplateINS2_24DerivedTemporalCRSTraitsEEELN9__gnu_cxx12_Lock_policyE2EE10_M_disposeEv@Base 6.0.0
 _ZNSt15_Sp_counted_ptrIPN5osgeo4proj3crs18DerivedCRSTemplateINS2_24DerivedTemporalCRSTraitsEEELN9__gnu_cxx12_Lock_policyE2EE14_M_get_deleterERKSt9type_info@Base 6.0.0
 _ZNSt15_Sp_counted_ptrIPN5osgeo4proj3crs18DerivedCRSTemplateINS2_24DerivedTemporalCRSTraitsEEELN9__gnu_cxx12_Lock_policyE2EED0Ev@Base 6.0.0
 _ZNSt15_Sp_counted_ptrIPN5osgeo4proj3crs18DerivedCRSTemplateINS2_24DerivedTemporalCRSTraitsEEELN9__gnu_cxx12_Lock_policyE2EED1Ev@Base 6.0.0
 _ZNSt15_Sp_counted_ptrIPN5osgeo4proj3crs18DerivedCRSTemplateINS2_24DerivedTemporalCRSTraitsEEELN9__gnu_cxx12_Lock_policyE2EED2Ev@Base 6.0.0
 _ZNSt15_Sp_counted_ptrIPN5osgeo4proj3crs18DerivedCRSTemplateINS2_26DerivedParametricCRSTraitsEEELN9__gnu_cxx12_Lock_policyE2EE10_M_destroyEv@Base 6.0.0
 _ZNSt15_Sp_counted_ptrIPN5osgeo4proj3crs18DerivedCRSTemplateINS2_26DerivedParametricCRSTraitsEEELN9__gnu_cxx12_Lock_policyE2EE10_M_disposeEv@Base 6.0.0
 _ZNSt15_Sp_counted_ptrIPN5osgeo4proj3crs18DerivedCRSTemplateINS2_26DerivedParametricCRSTraitsEEELN9__gnu_cxx12_Lock_policyE2EE14_M_get_deleterERKSt9type_info@Base 6.0.0
 _ZNSt15_Sp_counted_ptrIPN5osgeo4proj3crs18DerivedCRSTemplateINS2_26DerivedParametricCRSTraitsEEELN9__gnu_cxx12_Lock_policyE2EED0Ev@Base 6.0.0
 _ZNSt15_Sp_counted_ptrIPN5osgeo4proj3crs18DerivedCRSTemplateINS2_26DerivedParametricCRSTraitsEEELN9__gnu_cxx12_Lock_policyE2EED1Ev@Base 6.0.0
 _ZNSt15_Sp_counted_ptrIPN5osgeo4proj3crs18DerivedCRSTemplateINS2_26DerivedParametricCRSTraitsEEELN9__gnu_cxx12_Lock_policyE2EED2Ev@Base 6.0.0
 _ZNSt15_Sp_counted_ptrIPN5osgeo4proj3crs18DerivedCRSTemplateINS2_27DerivedEngineeringCRSTraitsEEELN9__gnu_cxx12_Lock_policyE2EE10_M_destroyEv@Base 6.0.0
 _ZNSt15_Sp_counted_ptrIPN5osgeo4proj3crs18DerivedCRSTemplateINS2_27DerivedEngineeringCRSTraitsEEELN9__gnu_cxx12_Lock_policyE2EE10_M_disposeEv@Base 6.0.0
 _ZNSt15_Sp_counted_ptrIPN5osgeo4proj3crs18DerivedCRSTemplateINS2_27DerivedEngineeringCRSTraitsEEELN9__gnu_cxx12_Lock_policyE2EE14_M_get_deleterERKSt9type_info@Base 6.0.0
 _ZNSt15_Sp_counted_ptrIPN5osgeo4proj3crs18DerivedCRSTemplateINS2_27DerivedEngineeringCRSTraitsEEELN9__gnu_cxx12_Lock_policyE2EED0Ev@Base 6.0.0
 _ZNSt15_Sp_counted_ptrIPN5osgeo4proj3crs18DerivedCRSTemplateINS2_27DerivedEngineeringCRSTraitsEEELN9__gnu_cxx12_Lock_policyE2EED1Ev@Base 6.0.0
 _ZNSt15_Sp_counted_ptrIPN5osgeo4proj3crs18DerivedCRSTemplateINS2_27DerivedEngineeringCRSTraitsEEELN9__gnu_cxx12_Lock_policyE2EED2Ev@Base 6.0.0
 _ZNSt15_Sp_counted_ptrIPN5osgeo4proj3crs18DerivedGeodeticCRSELN9__gnu_cxx12_Lock_policyE2EE10_M_destroyEv@Base 6.0.0
 _ZNSt15_Sp_counted_ptrIPN5osgeo4proj3crs18DerivedGeodeticCRSELN9__gnu_cxx12_Lock_policyE2EE10_M_disposeEv@Base 6.0.0
 _ZNSt15_Sp_counted_ptrIPN5osgeo4proj3crs18DerivedGeodeticCRSELN9__gnu_cxx12_Lock_policyE2EE14_M_get_deleterERKSt9type_info@Base 6.0.0
 _ZNSt15_Sp_counted_ptrIPN5osgeo4proj3crs18DerivedGeodeticCRSELN9__gnu_cxx12_Lock_policyE2EED0Ev@Base 6.0.0
 _ZNSt15_Sp_counted_ptrIPN5osgeo4proj3crs18DerivedGeodeticCRSELN9__gnu_cxx12_Lock_policyE2EED1Ev@Base 6.0.0
 _ZNSt15_Sp_counted_ptrIPN5osgeo4proj3crs18DerivedGeodeticCRSELN9__gnu_cxx12_Lock_policyE2EED2Ev@Base 6.0.0
 _ZNSt15_Sp_counted_ptrIPN5osgeo4proj3crs18DerivedVerticalCRSELN9__gnu_cxx12_Lock_policyE2EE10_M_destroyEv@Base 6.0.0
 _ZNSt15_Sp_counted_ptrIPN5osgeo4proj3crs18DerivedVerticalCRSELN9__gnu_cxx12_Lock_policyE2EE10_M_disposeEv@Base 6.0.0
 _ZNSt15_Sp_counted_ptrIPN5osgeo4proj3crs18DerivedVerticalCRSELN9__gnu_cxx12_Lock_policyE2EE14_M_get_deleterERKSt9type_info@Base 6.0.0
 _ZNSt15_Sp_counted_ptrIPN5osgeo4proj3crs18DerivedVerticalCRSELN9__gnu_cxx12_Lock_policyE2EED0Ev@Base 6.0.0
 _ZNSt15_Sp_counted_ptrIPN5osgeo4proj3crs18DerivedVerticalCRSELN9__gnu_cxx12_Lock_policyE2EED1Ev@Base 6.0.0
 _ZNSt15_Sp_counted_ptrIPN5osgeo4proj3crs18DerivedVerticalCRSELN9__gnu_cxx12_Lock_policyE2EED2Ev@Base 6.0.0
 _ZNSt15_Sp_counted_ptrIPN5osgeo4proj3crs19DerivedProjectedCRSELN9__gnu_cxx12_Lock_policyE2EE10_M_destroyEv@Base 6.0.0
 _ZNSt15_Sp_counted_ptrIPN5osgeo4proj3crs19DerivedProjectedCRSELN9__gnu_cxx12_Lock_policyE2EE10_M_disposeEv@Base 6.0.0
 _ZNSt15_Sp_counted_ptrIPN5osgeo4proj3crs19DerivedProjectedCRSELN9__gnu_cxx12_Lock_policyE2EE14_M_get_deleterERKSt9type_info@Base 6.0.0
 _ZNSt15_Sp_counted_ptrIPN5osgeo4proj3crs19DerivedProjectedCRSELN9__gnu_cxx12_Lock_policyE2EED0Ev@Base 6.0.0
 _ZNSt15_Sp_counted_ptrIPN5osgeo4proj3crs19DerivedProjectedCRSELN9__gnu_cxx12_Lock_policyE2EED1Ev@Base 6.0.0
 _ZNSt15_Sp_counted_ptrIPN5osgeo4proj3crs19DerivedProjectedCRSELN9__gnu_cxx12_Lock_policyE2EED2Ev@Base 6.0.0
 _ZNSt15_Sp_counted_ptrIPN5osgeo4proj3crs20DerivedGeographicCRSELN9__gnu_cxx12_Lock_policyE2EE10_M_destroyEv@Base 6.0.0
 _ZNSt15_Sp_counted_ptrIPN5osgeo4proj3crs20DerivedGeographicCRSELN9__gnu_cxx12_Lock_policyE2EE10_M_disposeEv@Base 6.0.0
 _ZNSt15_Sp_counted_ptrIPN5osgeo4proj3crs20DerivedGeographicCRSELN9__gnu_cxx12_Lock_policyE2EE14_M_get_deleterERKSt9type_info@Base 6.0.0
 _ZNSt15_Sp_counted_ptrIPN5osgeo4proj3crs20DerivedGeographicCRSELN9__gnu_cxx12_Lock_policyE2EED0Ev@Base 6.0.0
 _ZNSt15_Sp_counted_ptrIPN5osgeo4proj3crs20DerivedGeographicCRSELN9__gnu_cxx12_Lock_policyE2EED1Ev@Base 6.0.0
 _ZNSt15_Sp_counted_ptrIPN5osgeo4proj3crs20DerivedGeographicCRSELN9__gnu_cxx12_Lock_policyE2EED2Ev@Base 6.0.0
 _ZNSt15_Sp_counted_ptrIPN5osgeo4proj3crs8BoundCRSELN9__gnu_cxx12_Lock_policyE2EE10_M_destroyEv@Base 6.0.0
 _ZNSt15_Sp_counted_ptrIPN5osgeo4proj3crs8BoundCRSELN9__gnu_cxx12_Lock_policyE2EE10_M_disposeEv@Base 6.0.0
 _ZNSt15_Sp_counted_ptrIPN5osgeo4proj3crs8BoundCRSELN9__gnu_cxx12_Lock_policyE2EE14_M_get_deleterERKSt9type_info@Base 6.0.0
 _ZNSt15_Sp_counted_ptrIPN5osgeo4proj3crs8BoundCRSELN9__gnu_cxx12_Lock_policyE2EED0Ev@Base 6.0.0
 _ZNSt15_Sp_counted_ptrIPN5osgeo4proj3crs8BoundCRSELN9__gnu_cxx12_Lock_policyE2EED1Ev@Base 6.0.0
 _ZNSt15_Sp_counted_ptrIPN5osgeo4proj3crs8BoundCRSELN9__gnu_cxx12_Lock_policyE2EED2Ev@Base 6.0.0
 _ZNSt15_Sp_counted_ptrIPN5osgeo4proj5datum13DatumEnsembleELN9__gnu_cxx12_Lock_policyE2EE10_M_destroyEv@Base 6.0.0
 _ZNSt15_Sp_counted_ptrIPN5osgeo4proj5datum13DatumEnsembleELN9__gnu_cxx12_Lock_policyE2EE10_M_disposeEv@Base 6.0.0
 _ZNSt15_Sp_counted_ptrIPN5osgeo4proj5datum13DatumEnsembleELN9__gnu_cxx12_Lock_policyE2EE14_M_get_deleterERKSt9type_info@Base 6.0.0
 _ZNSt15_Sp_counted_ptrIPN5osgeo4proj5datum13DatumEnsembleELN9__gnu_cxx12_Lock_policyE2EED0Ev@Base 6.0.0
 _ZNSt15_Sp_counted_ptrIPN5osgeo4proj5datum13DatumEnsembleELN9__gnu_cxx12_Lock_policyE2EED1Ev@Base 6.0.0
 _ZNSt15_Sp_counted_ptrIPN5osgeo4proj5datum13DatumEnsembleELN9__gnu_cxx12_Lock_policyE2EED2Ev@Base 6.0.0
 _ZNSt15_Sp_counted_ptrIPN5osgeo4proj5datum13PrimeMeridianELN9__gnu_cxx12_Lock_policyE2EE10_M_destroyEv@Base 6.0.0
 _ZNSt15_Sp_counted_ptrIPN5osgeo4proj5datum13PrimeMeridianELN9__gnu_cxx12_Lock_policyE2EE10_M_disposeEv@Base 6.0.0
 _ZNSt15_Sp_counted_ptrIPN5osgeo4proj5datum13PrimeMeridianELN9__gnu_cxx12_Lock_policyE2EE14_M_get_deleterERKSt9type_info@Base 6.0.0
 _ZNSt15_Sp_counted_ptrIPN5osgeo4proj5datum13PrimeMeridianELN9__gnu_cxx12_Lock_policyE2EED0Ev@Base 6.0.0
 _ZNSt15_Sp_counted_ptrIPN5osgeo4proj5datum13PrimeMeridianELN9__gnu_cxx12_Lock_policyE2EED1Ev@Base 6.0.0
 _ZNSt15_Sp_counted_ptrIPN5osgeo4proj5datum13PrimeMeridianELN9__gnu_cxx12_Lock_policyE2EED2Ev@Base 6.0.0
 _ZNSt15_Sp_counted_ptrIPN5osgeo4proj5datum13TemporalDatumELN9__gnu_cxx12_Lock_policyE2EE10_M_destroyEv@Base 6.0.0
 _ZNSt15_Sp_counted_ptrIPN5osgeo4proj5datum13TemporalDatumELN9__gnu_cxx12_Lock_policyE2EE10_M_disposeEv@Base 6.0.0
 _ZNSt15_Sp_counted_ptrIPN5osgeo4proj5datum13TemporalDatumELN9__gnu_cxx12_Lock_policyE2EE14_M_get_deleterERKSt9type_info@Base 6.0.0
 _ZNSt15_Sp_counted_ptrIPN5osgeo4proj5datum13TemporalDatumELN9__gnu_cxx12_Lock_policyE2EED0Ev@Base 6.0.0
 _ZNSt15_Sp_counted_ptrIPN5osgeo4proj5datum13TemporalDatumELN9__gnu_cxx12_Lock_policyE2EED1Ev@Base 6.0.0
 _ZNSt15_Sp_counted_ptrIPN5osgeo4proj5datum13TemporalDatumELN9__gnu_cxx12_Lock_policyE2EED2Ev@Base 6.0.0
 _ZNSt15_Sp_counted_ptrIPN5osgeo4proj5datum15ParametricDatumELN9__gnu_cxx12_Lock_policyE2EE10_M_destroyEv@Base 6.0.0
 _ZNSt15_Sp_counted_ptrIPN5osgeo4proj5datum15ParametricDatumELN9__gnu_cxx12_Lock_policyE2EE10_M_disposeEv@Base 6.0.0
 _ZNSt15_Sp_counted_ptrIPN5osgeo4proj5datum15ParametricDatumELN9__gnu_cxx12_Lock_policyE2EE14_M_get_deleterERKSt9type_info@Base 6.0.0
 _ZNSt15_Sp_counted_ptrIPN5osgeo4proj5datum15ParametricDatumELN9__gnu_cxx12_Lock_policyE2EED0Ev@Base 6.0.0
 _ZNSt15_Sp_counted_ptrIPN5osgeo4proj5datum15ParametricDatumELN9__gnu_cxx12_Lock_policyE2EED1Ev@Base 6.0.0
 _ZNSt15_Sp_counted_ptrIPN5osgeo4proj5datum15ParametricDatumELN9__gnu_cxx12_Lock_policyE2EED2Ev@Base 6.0.0
 _ZNSt15_Sp_counted_ptrIPN5osgeo4proj5datum16EngineeringDatumELN9__gnu_cxx12_Lock_policyE2EE10_M_destroyEv@Base 6.0.0
 _ZNSt15_Sp_counted_ptrIPN5osgeo4proj5datum16EngineeringDatumELN9__gnu_cxx12_Lock_policyE2EE10_M_disposeEv@Base 6.0.0
 _ZNSt15_Sp_counted_ptrIPN5osgeo4proj5datum16EngineeringDatumELN9__gnu_cxx12_Lock_policyE2EE14_M_get_deleterERKSt9type_info@Base 6.0.0
 _ZNSt15_Sp_counted_ptrIPN5osgeo4proj5datum16EngineeringDatumELN9__gnu_cxx12_Lock_policyE2EED0Ev@Base 6.0.0
 _ZNSt15_Sp_counted_ptrIPN5osgeo4proj5datum16EngineeringDatumELN9__gnu_cxx12_Lock_policyE2EED1Ev@Base 6.0.0
 _ZNSt15_Sp_counted_ptrIPN5osgeo4proj5datum16EngineeringDatumELN9__gnu_cxx12_Lock_policyE2EED2Ev@Base 6.0.0
 _ZNSt15_Sp_counted_ptrIPN5osgeo4proj5datum22GeodeticReferenceFrameELN9__gnu_cxx12_Lock_policyE2EE10_M_destroyEv@Base 6.0.0
 _ZNSt15_Sp_counted_ptrIPN5osgeo4proj5datum22GeodeticReferenceFrameELN9__gnu_cxx12_Lock_policyE2EE10_M_disposeEv@Base 6.0.0
 _ZNSt15_Sp_counted_ptrIPN5osgeo4proj5datum22GeodeticReferenceFrameELN9__gnu_cxx12_Lock_policyE2EE14_M_get_deleterERKSt9type_info@Base 6.0.0
 _ZNSt15_Sp_counted_ptrIPN5osgeo4proj5datum22GeodeticReferenceFrameELN9__gnu_cxx12_Lock_policyE2EED0Ev@Base 6.0.0
 _ZNSt15_Sp_counted_ptrIPN5osgeo4proj5datum22GeodeticReferenceFrameELN9__gnu_cxx12_Lock_policyE2EED1Ev@Base 6.0.0
 _ZNSt15_Sp_counted_ptrIPN5osgeo4proj5datum22GeodeticReferenceFrameELN9__gnu_cxx12_Lock_policyE2EED2Ev@Base 6.0.0
 _ZNSt15_Sp_counted_ptrIPN5osgeo4proj5datum22VerticalReferenceFrameELN9__gnu_cxx12_Lock_policyE2EE10_M_destroyEv@Base 6.0.0
 _ZNSt15_Sp_counted_ptrIPN5osgeo4proj5datum22VerticalReferenceFrameELN9__gnu_cxx12_Lock_policyE2EE10_M_disposeEv@Base 6.0.0
 _ZNSt15_Sp_counted_ptrIPN5osgeo4proj5datum22VerticalReferenceFrameELN9__gnu_cxx12_Lock_policyE2EE14_M_get_deleterERKSt9type_info@Base 6.0.0
 _ZNSt15_Sp_counted_ptrIPN5osgeo4proj5datum22VerticalReferenceFrameELN9__gnu_cxx12_Lock_policyE2EED0Ev@Base 6.0.0
 _ZNSt15_Sp_counted_ptrIPN5osgeo4proj5datum22VerticalReferenceFrameELN9__gnu_cxx12_Lock_policyE2EED1Ev@Base 6.0.0
 _ZNSt15_Sp_counted_ptrIPN5osgeo4proj5datum22VerticalReferenceFrameELN9__gnu_cxx12_Lock_policyE2EED2Ev@Base 6.0.0
 _ZNSt15_Sp_counted_ptrIPN5osgeo4proj5datum29DynamicGeodeticReferenceFrameELN9__gnu_cxx12_Lock_policyE2EE10_M_destroyEv@Base 6.0.0
 _ZNSt15_Sp_counted_ptrIPN5osgeo4proj5datum29DynamicGeodeticReferenceFrameELN9__gnu_cxx12_Lock_policyE2EE10_M_disposeEv@Base 6.0.0
 _ZNSt15_Sp_counted_ptrIPN5osgeo4proj5datum29DynamicGeodeticReferenceFrameELN9__gnu_cxx12_Lock_policyE2EE14_M_get_deleterERKSt9type_info@Base 6.0.0
 _ZNSt15_Sp_counted_ptrIPN5osgeo4proj5datum29DynamicGeodeticReferenceFrameELN9__gnu_cxx12_Lock_policyE2EED0Ev@Base 6.0.0
 _ZNSt15_Sp_counted_ptrIPN5osgeo4proj5datum29DynamicGeodeticReferenceFrameELN9__gnu_cxx12_Lock_policyE2EED1Ev@Base 6.0.0
 _ZNSt15_Sp_counted_ptrIPN5osgeo4proj5datum29DynamicGeodeticReferenceFrameELN9__gnu_cxx12_Lock_policyE2EED2Ev@Base 6.0.0
 _ZNSt15_Sp_counted_ptrIPN5osgeo4proj5datum29DynamicVerticalReferenceFrameELN9__gnu_cxx12_Lock_policyE2EE10_M_destroyEv@Base 6.0.0
 _ZNSt15_Sp_counted_ptrIPN5osgeo4proj5datum29DynamicVerticalReferenceFrameELN9__gnu_cxx12_Lock_policyE2EE10_M_disposeEv@Base 6.0.0
 _ZNSt15_Sp_counted_ptrIPN5osgeo4proj5datum29DynamicVerticalReferenceFrameELN9__gnu_cxx12_Lock_policyE2EE14_M_get_deleterERKSt9type_info@Base 6.0.0
 _ZNSt15_Sp_counted_ptrIPN5osgeo4proj5datum29DynamicVerticalReferenceFrameELN9__gnu_cxx12_Lock_policyE2EED0Ev@Base 6.0.0
 _ZNSt15_Sp_counted_ptrIPN5osgeo4proj5datum29DynamicVerticalReferenceFrameELN9__gnu_cxx12_Lock_policyE2EED1Ev@Base 6.0.0
 _ZNSt15_Sp_counted_ptrIPN5osgeo4proj5datum29DynamicVerticalReferenceFrameELN9__gnu_cxx12_Lock_policyE2EED2Ev@Base 6.0.0
 _ZNSt15_Sp_counted_ptrIPN5osgeo4proj5datum9EllipsoidELN9__gnu_cxx12_Lock_policyE2EE10_M_destroyEv@Base 6.0.0
 _ZNSt15_Sp_counted_ptrIPN5osgeo4proj5datum9EllipsoidELN9__gnu_cxx12_Lock_policyE2EE10_M_disposeEv@Base 6.0.0
 _ZNSt15_Sp_counted_ptrIPN5osgeo4proj5datum9EllipsoidELN9__gnu_cxx12_Lock_policyE2EE14_M_get_deleterERKSt9type_info@Base 6.0.0
 _ZNSt15_Sp_counted_ptrIPN5osgeo4proj5datum9EllipsoidELN9__gnu_cxx12_Lock_policyE2EED0Ev@Base 6.0.0
 _ZNSt15_Sp_counted_ptrIPN5osgeo4proj5datum9EllipsoidELN9__gnu_cxx12_Lock_policyE2EED1Ev@Base 6.0.0
 _ZNSt15_Sp_counted_ptrIPN5osgeo4proj5datum9EllipsoidELN9__gnu_cxx12_Lock_policyE2EED2Ev@Base 6.0.0
 _ZNSt15_Sp_counted_ptrIPN5osgeo4proj6common12ObjectDomainELN9__gnu_cxx12_Lock_policyE2EE10_M_destroyEv@Base 6.0.0
 _ZNSt15_Sp_counted_ptrIPN5osgeo4proj6common12ObjectDomainELN9__gnu_cxx12_Lock_policyE2EE10_M_disposeEv@Base 6.0.0
 _ZNSt15_Sp_counted_ptrIPN5osgeo4proj6common12ObjectDomainELN9__gnu_cxx12_Lock_policyE2EE14_M_get_deleterERKSt9type_info@Base 6.0.0
 _ZNSt15_Sp_counted_ptrIPN5osgeo4proj6common12ObjectDomainELN9__gnu_cxx12_Lock_policyE2EED0Ev@Base 6.0.0
 _ZNSt15_Sp_counted_ptrIPN5osgeo4proj6common12ObjectDomainELN9__gnu_cxx12_Lock_policyE2EED1Ev@Base 6.0.0
 _ZNSt15_Sp_counted_ptrIPN5osgeo4proj6common12ObjectDomainELN9__gnu_cxx12_Lock_policyE2EED2Ev@Base 6.0.0
 _ZNSt15_Sp_counted_ptrIPN5osgeo4proj8metadata10IdentifierELN9__gnu_cxx12_Lock_policyE2EE10_M_destroyEv@Base 6.0.0
 _ZNSt15_Sp_counted_ptrIPN5osgeo4proj8metadata10IdentifierELN9__gnu_cxx12_Lock_policyE2EE10_M_disposeEv@Base 6.0.0
 _ZNSt15_Sp_counted_ptrIPN5osgeo4proj8metadata10IdentifierELN9__gnu_cxx12_Lock_policyE2EE14_M_get_deleterERKSt9type_info@Base 6.0.0
 _ZNSt15_Sp_counted_ptrIPN5osgeo4proj8metadata10IdentifierELN9__gnu_cxx12_Lock_policyE2EED0Ev@Base 6.0.0
 _ZNSt15_Sp_counted_ptrIPN5osgeo4proj8metadata10IdentifierELN9__gnu_cxx12_Lock_policyE2EED1Ev@Base 6.0.0
 _ZNSt15_Sp_counted_ptrIPN5osgeo4proj8metadata10IdentifierELN9__gnu_cxx12_Lock_policyE2EED2Ev@Base 6.0.0
 _ZNSt15_Sp_counted_ptrIPN5osgeo4proj8metadata14TemporalExtentELN9__gnu_cxx12_Lock_policyE2EE10_M_destroyEv@Base 6.0.0
 _ZNSt15_Sp_counted_ptrIPN5osgeo4proj8metadata14TemporalExtentELN9__gnu_cxx12_Lock_policyE2EE10_M_disposeEv@Base 6.0.0
 _ZNSt15_Sp_counted_ptrIPN5osgeo4proj8metadata14TemporalExtentELN9__gnu_cxx12_Lock_policyE2EE14_M_get_deleterERKSt9type_info@Base 6.0.0
 _ZNSt15_Sp_counted_ptrIPN5osgeo4proj8metadata14TemporalExtentELN9__gnu_cxx12_Lock_policyE2EED0Ev@Base 6.0.0
 _ZNSt15_Sp_counted_ptrIPN5osgeo4proj8metadata14TemporalExtentELN9__gnu_cxx12_Lock_policyE2EED1Ev@Base 6.0.0
 _ZNSt15_Sp_counted_ptrIPN5osgeo4proj8metadata14TemporalExtentELN9__gnu_cxx12_Lock_policyE2EED2Ev@Base 6.0.0
 _ZNSt15_Sp_counted_ptrIPN5osgeo4proj8metadata14VerticalExtentELN9__gnu_cxx12_Lock_policyE2EE10_M_destroyEv@Base 6.0.0
 _ZNSt15_Sp_counted_ptrIPN5osgeo4proj8metadata14VerticalExtentELN9__gnu_cxx12_Lock_policyE2EE10_M_disposeEv@Base 6.0.0
 _ZNSt15_Sp_counted_ptrIPN5osgeo4proj8metadata14VerticalExtentELN9__gnu_cxx12_Lock_policyE2EE14_M_get_deleterERKSt9type_info@Base 6.0.0
 _ZNSt15_Sp_counted_ptrIPN5osgeo4proj8metadata14VerticalExtentELN9__gnu_cxx12_Lock_policyE2EED0Ev@Base 6.0.0
 _ZNSt15_Sp_counted_ptrIPN5osgeo4proj8metadata14VerticalExtentELN9__gnu_cxx12_Lock_policyE2EED1Ev@Base 6.0.0
 _ZNSt15_Sp_counted_ptrIPN5osgeo4proj8metadata14VerticalExtentELN9__gnu_cxx12_Lock_policyE2EED2Ev@Base 6.0.0
 _ZNSt15_Sp_counted_ptrIPN5osgeo4proj8metadata18PositionalAccuracyELN9__gnu_cxx12_Lock_policyE2EE10_M_destroyEv@Base 6.0.0
 _ZNSt15_Sp_counted_ptrIPN5osgeo4proj8metadata18PositionalAccuracyELN9__gnu_cxx12_Lock_policyE2EE10_M_disposeEv@Base 6.0.0
 _ZNSt15_Sp_counted_ptrIPN5osgeo4proj8metadata18PositionalAccuracyELN9__gnu_cxx12_Lock_policyE2EE14_M_get_deleterERKSt9type_info@Base 6.0.0
 _ZNSt15_Sp_counted_ptrIPN5osgeo4proj8metadata18PositionalAccuracyELN9__gnu_cxx12_Lock_policyE2EED0Ev@Base 6.0.0
 _ZNSt15_Sp_counted_ptrIPN5osgeo4proj8metadata18PositionalAccuracyELN9__gnu_cxx12_Lock_policyE2EED1Ev@Base 6.0.0
 _ZNSt15_Sp_counted_ptrIPN5osgeo4proj8metadata18PositionalAccuracyELN9__gnu_cxx12_Lock_policyE2EED2Ev@Base 6.0.0
 _ZNSt15_Sp_counted_ptrIPN5osgeo4proj8metadata21GeographicBoundingBoxELN9__gnu_cxx12_Lock_policyE2EE10_M_destroyEv@Base 6.0.0
 _ZNSt15_Sp_counted_ptrIPN5osgeo4proj8metadata21GeographicBoundingBoxELN9__gnu_cxx12_Lock_policyE2EE10_M_disposeEv@Base 6.0.0
 _ZNSt15_Sp_counted_ptrIPN5osgeo4proj8metadata21GeographicBoundingBoxELN9__gnu_cxx12_Lock_policyE2EE14_M_get_deleterERKSt9type_info@Base 6.0.0
 _ZNSt15_Sp_counted_ptrIPN5osgeo4proj8metadata21GeographicBoundingBoxELN9__gnu_cxx12_Lock_policyE2EED0Ev@Base 6.0.0
 _ZNSt15_Sp_counted_ptrIPN5osgeo4proj8metadata21GeographicBoundingBoxELN9__gnu_cxx12_Lock_policyE2EED1Ev@Base 6.0.0
 _ZNSt15_Sp_counted_ptrIPN5osgeo4proj8metadata21GeographicBoundingBoxELN9__gnu_cxx12_Lock_policyE2EED2Ev@Base 6.0.0
 _ZNSt15_Sp_counted_ptrIPN5osgeo4proj8metadata6ExtentELN9__gnu_cxx12_Lock_policyE2EE10_M_destroyEv@Base 6.0.0
 _ZNSt15_Sp_counted_ptrIPN5osgeo4proj8metadata6ExtentELN9__gnu_cxx12_Lock_policyE2EE10_M_disposeEv@Base 6.0.0
 _ZNSt15_Sp_counted_ptrIPN5osgeo4proj8metadata6ExtentELN9__gnu_cxx12_Lock_policyE2EE14_M_get_deleterERKSt9type_info@Base 6.0.0
 _ZNSt15_Sp_counted_ptrIPN5osgeo4proj8metadata6ExtentELN9__gnu_cxx12_Lock_policyE2EED0Ev@Base 6.0.0
 _ZNSt15_Sp_counted_ptrIPN5osgeo4proj8metadata6ExtentELN9__gnu_cxx12_Lock_policyE2EED1Ev@Base 6.0.0
 _ZNSt15_Sp_counted_ptrIPN5osgeo4proj8metadata6ExtentELN9__gnu_cxx12_Lock_policyE2EED2Ev@Base 6.0.0
 _ZNSt15_Sp_counted_ptrIPN5osgeo4proj9operation10ConversionELN9__gnu_cxx12_Lock_policyE2EE10_M_destroyEv@Base 6.0.0
 _ZNSt15_Sp_counted_ptrIPN5osgeo4proj9operation10ConversionELN9__gnu_cxx12_Lock_policyE2EE10_M_disposeEv@Base 6.0.0
 _ZNSt15_Sp_counted_ptrIPN5osgeo4proj9operation10ConversionELN9__gnu_cxx12_Lock_policyE2EE14_M_get_deleterERKSt9type_info@Base 6.0.0
 _ZNSt15_Sp_counted_ptrIPN5osgeo4proj9operation10ConversionELN9__gnu_cxx12_Lock_policyE2EED0Ev@Base 6.0.0
 _ZNSt15_Sp_counted_ptrIPN5osgeo4proj9operation10ConversionELN9__gnu_cxx12_Lock_policyE2EED1Ev@Base 6.0.0
 _ZNSt15_Sp_counted_ptrIPN5osgeo4proj9operation10ConversionELN9__gnu_cxx12_Lock_policyE2EED2Ev@Base 6.0.0
 _ZNSt15_Sp_counted_ptrIPN5osgeo4proj9operation14ParameterValueELN9__gnu_cxx12_Lock_policyE2EE10_M_destroyEv@Base 6.0.0
 _ZNSt15_Sp_counted_ptrIPN5osgeo4proj9operation14ParameterValueELN9__gnu_cxx12_Lock_policyE2EE10_M_disposeEv@Base 6.0.0
 _ZNSt15_Sp_counted_ptrIPN5osgeo4proj9operation14ParameterValueELN9__gnu_cxx12_Lock_policyE2EE14_M_get_deleterERKSt9type_info@Base 6.0.0
 _ZNSt15_Sp_counted_ptrIPN5osgeo4proj9operation14ParameterValueELN9__gnu_cxx12_Lock_policyE2EED0Ev@Base 6.0.0
 _ZNSt15_Sp_counted_ptrIPN5osgeo4proj9operation14ParameterValueELN9__gnu_cxx12_Lock_policyE2EED1Ev@Base 6.0.0
 _ZNSt15_Sp_counted_ptrIPN5osgeo4proj9operation14ParameterValueELN9__gnu_cxx12_Lock_policyE2EED2Ev@Base 6.0.0
 _ZNSt15_Sp_counted_ptrIPN5osgeo4proj9operation14TransformationELN9__gnu_cxx12_Lock_policyE2EE10_M_destroyEv@Base 6.0.0
 _ZNSt15_Sp_counted_ptrIPN5osgeo4proj9operation14TransformationELN9__gnu_cxx12_Lock_policyE2EE10_M_disposeEv@Base 6.0.0
 _ZNSt15_Sp_counted_ptrIPN5osgeo4proj9operation14TransformationELN9__gnu_cxx12_Lock_policyE2EE14_M_get_deleterERKSt9type_info@Base 6.0.0
 _ZNSt15_Sp_counted_ptrIPN5osgeo4proj9operation14TransformationELN9__gnu_cxx12_Lock_policyE2EED0Ev@Base 6.0.0
 _ZNSt15_Sp_counted_ptrIPN5osgeo4proj9operation14TransformationELN9__gnu_cxx12_Lock_policyE2EED1Ev@Base 6.0.0
 _ZNSt15_Sp_counted_ptrIPN5osgeo4proj9operation14TransformationELN9__gnu_cxx12_Lock_policyE2EED2Ev@Base 6.0.0
 _ZNSt15_Sp_counted_ptrIPN5osgeo4proj9operation15OperationMethodELN9__gnu_cxx12_Lock_policyE2EE10_M_destroyEv@Base 6.0.0
 _ZNSt15_Sp_counted_ptrIPN5osgeo4proj9operation15OperationMethodELN9__gnu_cxx12_Lock_policyE2EE10_M_disposeEv@Base 6.0.0
 _ZNSt15_Sp_counted_ptrIPN5osgeo4proj9operation15OperationMethodELN9__gnu_cxx12_Lock_policyE2EE14_M_get_deleterERKSt9type_info@Base 6.0.0
 _ZNSt15_Sp_counted_ptrIPN5osgeo4proj9operation15OperationMethodELN9__gnu_cxx12_Lock_policyE2EED0Ev@Base 6.0.0
 _ZNSt15_Sp_counted_ptrIPN5osgeo4proj9operation15OperationMethodELN9__gnu_cxx12_Lock_policyE2EED1Ev@Base 6.0.0
 _ZNSt15_Sp_counted_ptrIPN5osgeo4proj9operation15OperationMethodELN9__gnu_cxx12_Lock_policyE2EED2Ev@Base 6.0.0
 _ZNSt15_Sp_counted_ptrIPN5osgeo4proj9operation18OperationParameterELN9__gnu_cxx12_Lock_policyE2EE10_M_destroyEv@Base 6.0.0
 _ZNSt15_Sp_counted_ptrIPN5osgeo4proj9operation18OperationParameterELN9__gnu_cxx12_Lock_policyE2EE10_M_disposeEv@Base 6.0.0
 _ZNSt15_Sp_counted_ptrIPN5osgeo4proj9operation18OperationParameterELN9__gnu_cxx12_Lock_policyE2EE14_M_get_deleterERKSt9type_info@Base 6.0.0
 _ZNSt15_Sp_counted_ptrIPN5osgeo4proj9operation18OperationParameterELN9__gnu_cxx12_Lock_policyE2EED0Ev@Base 6.0.0
 _ZNSt15_Sp_counted_ptrIPN5osgeo4proj9operation18OperationParameterELN9__gnu_cxx12_Lock_policyE2EED1Ev@Base 6.0.0
 _ZNSt15_Sp_counted_ptrIPN5osgeo4proj9operation18OperationParameterELN9__gnu_cxx12_Lock_policyE2EED2Ev@Base 6.0.0
 _ZNSt15_Sp_counted_ptrIPN5osgeo4proj9operation21ConcatenatedOperationELN9__gnu_cxx12_Lock_policyE2EE10_M_destroyEv@Base 6.0.0
 _ZNSt15_Sp_counted_ptrIPN5osgeo4proj9operation21ConcatenatedOperationELN9__gnu_cxx12_Lock_policyE2EE10_M_disposeEv@Base 6.0.0
 _ZNSt15_Sp_counted_ptrIPN5osgeo4proj9operation21ConcatenatedOperationELN9__gnu_cxx12_Lock_policyE2EE14_M_get_deleterERKSt9type_info@Base 6.0.0
 _ZNSt15_Sp_counted_ptrIPN5osgeo4proj9operation21ConcatenatedOperationELN9__gnu_cxx12_Lock_policyE2EED0Ev@Base 6.0.0
 _ZNSt15_Sp_counted_ptrIPN5osgeo4proj9operation21ConcatenatedOperationELN9__gnu_cxx12_Lock_policyE2EED1Ev@Base 6.0.0
 _ZNSt15_Sp_counted_ptrIPN5osgeo4proj9operation21ConcatenatedOperationELN9__gnu_cxx12_Lock_policyE2EED2Ev@Base 6.0.0
 _ZNSt15_Sp_counted_ptrIPN5osgeo4proj9operation23OperationParameterValueELN9__gnu_cxx12_Lock_policyE2EE10_M_destroyEv@Base 6.0.0
 _ZNSt15_Sp_counted_ptrIPN5osgeo4proj9operation23OperationParameterValueELN9__gnu_cxx12_Lock_policyE2EE10_M_disposeEv@Base 6.0.0
 _ZNSt15_Sp_counted_ptrIPN5osgeo4proj9operation23OperationParameterValueELN9__gnu_cxx12_Lock_policyE2EE14_M_get_deleterERKSt9type_info@Base 6.0.0
 _ZNSt15_Sp_counted_ptrIPN5osgeo4proj9operation23OperationParameterValueELN9__gnu_cxx12_Lock_policyE2EED0Ev@Base 6.0.0
 _ZNSt15_Sp_counted_ptrIPN5osgeo4proj9operation23OperationParameterValueELN9__gnu_cxx12_Lock_policyE2EED1Ev@Base 6.0.0
 _ZNSt15_Sp_counted_ptrIPN5osgeo4proj9operation23OperationParameterValueELN9__gnu_cxx12_Lock_policyE2EED2Ev@Base 6.0.0
 _ZNSt16_Sp_counted_baseILN9__gnu_cxx12_Lock_policyE2EE10_M_destroyEv@Base 6.0.0
 _ZNSt16_Sp_counted_baseILN9__gnu_cxx12_Lock_policyE2EE10_M_releaseEv@Base 6.0.0
 _ZNSt16_Sp_counted_baseILN9__gnu_cxx12_Lock_policyE2EE15_M_weak_releaseEv@Base 6.0.0
 _ZNSt23_Sp_counted_ptr_inplaceIN5osgeo4proj6common13UnitOfMeasureESaIS3_ELN9__gnu_cxx12_Lock_policyE2EE10_M_destroyEv@Base 6.0.0
 _ZNSt23_Sp_counted_ptr_inplaceIN5osgeo4proj6common13UnitOfMeasureESaIS3_ELN9__gnu_cxx12_Lock_policyE2EE10_M_disposeEv@Base 6.0.0
 _ZNSt23_Sp_counted_ptr_inplaceIN5osgeo4proj6common13UnitOfMeasureESaIS3_ELN9__gnu_cxx12_Lock_policyE2EE14_M_get_deleterERKSt9type_info@Base 6.0.0
 _ZNSt23_Sp_counted_ptr_inplaceIN5osgeo4proj6common13UnitOfMeasureESaIS3_ELN9__gnu_cxx12_Lock_policyE2EED0Ev@Base 6.0.0
 _ZNSt23_Sp_counted_ptr_inplaceIN5osgeo4proj6common13UnitOfMeasureESaIS3_ELN9__gnu_cxx12_Lock_policyE2EED1Ev@Base 6.0.0
 _ZNSt23_Sp_counted_ptr_inplaceIN5osgeo4proj6common13UnitOfMeasureESaIS3_ELN9__gnu_cxx12_Lock_policyE2EED2Ev@Base 6.0.0
 _ZNSt3mapINSt7__cxx1112basic_stringIcSt11char_traitsIcESaIcEEES5_St4lessIS5_ESaISt4pairIKS5_S5_EEEixERS9_@Base 6.2.0
 _ZNSt3mapINSt7__cxx1112basic_stringIcSt11char_traitsIcESaIcEEEdSt4lessIS5_ESaISt4pairIKS5_dEEEixERS9_@Base 6.0.0
 _ZNSt3setINSt7__cxx1112basic_stringIcSt11char_traitsIcESaIcEEESt4lessIS5_ESaIS5_EED1Ev@Base 6.0.0
 _ZNSt3setINSt7__cxx1112basic_stringIcSt11char_traitsIcESaIcEEESt4lessIS5_ESaIS5_EED2Ev@Base 6.0.0
 _ZNSt4pairINSt7__cxx1112basic_stringIcSt11char_traitsIcESaIcEEES5_ED1Ev@Base 6.0.0
 _ZNSt4pairINSt7__cxx1112basic_stringIcSt11char_traitsIcESaIcEEES5_ED2Ev@Base 6.0.0
 _ZNSt5dequeIdSaIdEE16_M_push_back_auxIJRKdEEEvDpOT_@Base 6.0.0
 _ZNSt6vectorIN5osgeo4proj2io16AuthorityFactory10ObjectTypeESaIS4_EE12emplace_backIJS4_EEEvDpOT_@Base 6.0.0
 _ZNSt6vectorIN5osgeo4proj2io16AuthorityFactory10ObjectTypeESaIS4_EE17_M_realloc_insertIJRKS4_EEEvN9__gnu_cxx17__normal_iteratorIPS4_S6_EEDpOT_@Base 6.0.0
 _ZNSt6vectorIN5osgeo4proj2io16AuthorityFactory10ObjectTypeESaIS4_EE17_M_realloc_insertIJS4_EEEvN9__gnu_cxx17__normal_iteratorIPS4_S6_EEDpOT_@Base 6.0.0
 _ZNSt6vectorIN5osgeo4proj2io16AuthorityFactory10ObjectTypeESaIS4_EEC1ESt16initializer_listIS4_ERKS5_@Base 6.0.0
 _ZNSt6vectorIN5osgeo4proj2io16AuthorityFactory10ObjectTypeESaIS4_EEC2ESt16initializer_listIS4_ERKS5_@Base 6.0.0
 _ZNSt6vectorINSt7__cxx1112basic_stringIcSt11char_traitsIcESaIcEEESaIS5_EE12emplace_backIJEEEvDpOT_@Base 6.0.0
 _ZNSt6vectorINSt7__cxx1112basic_stringIcSt11char_traitsIcESaIcEEESaIS5_EE12emplace_backIJS5_EEEvDpOT_@Base 6.0.0
 _ZNSt6vectorINSt7__cxx1112basic_stringIcSt11char_traitsIcESaIcEEESaIS5_EE17_M_realloc_insertIJEEEvN9__gnu_cxx17__normal_iteratorIPS5_S7_EEDpOT_@Base 6.0.0
 _ZNSt6vectorINSt7__cxx1112basic_stringIcSt11char_traitsIcESaIcEEESaIS5_EE17_M_realloc_insertIJRKPKcEEEvN9__gnu_cxx17__normal_iteratorIPS5_S7_EEDpOT_@Base 6.0.0
 _ZNSt6vectorINSt7__cxx1112basic_stringIcSt11char_traitsIcESaIcEEESaIS5_EE17_M_realloc_insertIJRKS5_EEEvN9__gnu_cxx17__normal_iteratorIPS5_S7_EEDpOT_@Base 6.0.0
 _ZNSt6vectorINSt7__cxx1112basic_stringIcSt11char_traitsIcESaIcEEESaIS5_EE17_M_realloc_insertIJRS5_EEEvN9__gnu_cxx17__normal_iteratorIPS5_S7_EEDpOT_@Base 6.0.0
 _ZNSt6vectorINSt7__cxx1112basic_stringIcSt11char_traitsIcESaIcEEESaIS5_EE17_M_realloc_insertIJS5_EEEvN9__gnu_cxx17__normal_iteratorIPS5_S7_EEDpOT_@Base 6.0.0
 _ZNSt6vectorINSt7__cxx1112basic_stringIcSt11char_traitsIcESaIcEEESaIS5_EED1Ev@Base 6.0.0
 _ZNSt6vectorINSt7__cxx1112basic_stringIcSt11char_traitsIcESaIcEEESaIS5_EED2Ev@Base 6.0.0
 _ZNSt6vectorINSt7__cxx1112basic_stringIcSt11char_traitsIcESaIcEEESaIS5_EEaSERKS7_@Base 6.0.0
 _ZNSt6vectorISt4pairINSt7__cxx1112basic_stringIcSt11char_traitsIcESaIcEEES6_ESaIS7_EE17_M_realloc_insertIJS7_EEEvN9__gnu_cxx17__normal_iteratorIPS7_S9_EEDpOT_@Base 6.0.0
 _ZNSt6vectorISt4pairINSt7__cxx1112basic_stringIcSt11char_traitsIcESaIcEEES6_ESaIS7_EEaSERKS9_@Base 6.0.0
 _ZNSt6vectorIbSaIbEE13_M_insert_auxESt13_Bit_iteratorb@Base 6.0.0
 _ZNSt6vectorIbSaIbEE14_M_fill_insertESt13_Bit_iteratormb@Base 6.3.0
 _ZNSt6vectorIbSaIbEE9push_backEb@Base 6.2.0
 _ZNSt6vectorIcSaIcEE12emplace_backIJcEEEvDpOT_@Base 6.2.0
 _ZNSt6vectorIcSaIcEE17_M_realloc_insertIJcEEEvN9__gnu_cxx17__normal_iteratorIPcS1_EEDpOT_@Base 6.2.0
 _ZNSt6vectorIdSaIdEE12emplace_backIJdEEEvDpOT_@Base 6.0.0
 _ZNSt6vectorIdSaIdEE17_M_default_appendEm@Base 6.3.0
 _ZNSt6vectorIdSaIdEE17_M_realloc_insertIJdEEEvN9__gnu_cxx17__normal_iteratorIPdS1_EEDpOT_@Base 6.0.0
 _ZNSt6vectorIdSaIdEEaSERKS1_@Base 6.0.0
 _ZNSt7__cxx1110_List_baseIN5osgeo4proj2io16AuthorityFactory7CRSInfoESaIS5_EE8_M_clearEv@Base 6.0.0
 _ZNSt7__cxx1110_List_baseINS_12basic_stringIcSt11char_traitsIcESaIcEEESaIS5_EE8_M_clearEv@Base 6.0.0
 _ZNSt7__cxx1110_List_baseISt4pairINS_12basic_stringIcSt11char_traitsIcESaIcEEES6_ESaIS7_EE8_M_clearEv@Base 6.0.0
 _ZNSt7__cxx1110_List_baseISt6vectorINS_12basic_stringIcSt11char_traitsIcESaIcEEESaIS6_EESaIS8_EE8_M_clearEv@Base 6.0.0
 _ZNSt7__cxx1112basic_stringIcSt11char_traitsIcESaIcEE12_M_constructIPKcEEvT_S8_St20forward_iterator_tag@Base 6.0.0
 _ZNSt7__cxx1112basic_stringIcSt11char_traitsIcESaIcEE12_M_constructIPcEEvT_S7_St20forward_iterator_tag@Base 6.0.0
 _ZNSt7__cxx1115basic_stringbufIcSt11char_traitsIcESaIcEED0Ev@Base 6.0.0
 _ZNSt7__cxx1115basic_stringbufIcSt11char_traitsIcESaIcEED1Ev@Base 6.0.0
 _ZNSt7__cxx1115basic_stringbufIcSt11char_traitsIcESaIcEED2Ev@Base 6.0.0
 _ZNSt7__cxx114listINS_12basic_stringIcSt11char_traitsIcESaIcEEESaIS5_EE18_M_assign_dispatchISt20_List_const_iteratorIS5_EEEvT_SB_St12__false_type@Base 6.3.0
 _ZNSt8_Rb_treeINSt7__cxx1112basic_stringIcSt11char_traitsIcESaIcEEES5_St9_IdentityIS5_ESt4lessIS5_ESaIS5_EE16_M_insert_uniqueIRKS5_EESt4pairISt17_Rb_tree_iteratorIS5_EbEOT_@Base 6.0.0
 _ZNSt8_Rb_treeINSt7__cxx1112basic_stringIcSt11char_traitsIcESaIcEEES5_St9_IdentityIS5_ESt4lessIS5_ESaIS5_EE24_M_get_insert_unique_posERKS5_@Base 6.0.0
 _ZNSt8_Rb_treeINSt7__cxx1112basic_stringIcSt11char_traitsIcESaIcEEES5_St9_IdentityIS5_ESt4lessIS5_ESaIS5_EE4findERKS5_@Base 6.3.1
 _ZNSt8_Rb_treeINSt7__cxx1112basic_stringIcSt11char_traitsIcESaIcEEES5_St9_IdentityIS5_ESt4lessIS5_ESaIS5_EE7_M_copyINSB_11_Alloc_nodeEEEPSt13_Rb_tree_nodeIS5_EPKSF_PSt18_Rb_tree_node_baseRT_@Base 6.0.0
 _ZNSt8_Rb_treeINSt7__cxx1112basic_stringIcSt11char_traitsIcESaIcEEES5_St9_IdentityIS5_ESt4lessIS5_ESaIS5_EE8_M_eraseEPSt13_Rb_tree_nodeIS5_E@Base 6.0.0
 _ZNSt8_Rb_treeINSt7__cxx1112basic_stringIcSt11char_traitsIcESaIcEEESt4pairIKS5_NS0_4listISt6vectorIS5_SaIS5_EESaISB_EEEESt10_Select1stISE_ESt4lessIS5_ESaISE_EE22_M_emplace_hint_uniqueIJRKSt21piecewise_construct_tSt5tupleIJRS7_EESP_IJEEEEESt17_Rb_tree_iteratorISE_ESt23_Rb_tree_const_iteratorISE_EDpOT_@Base 6.0.0
 _ZNSt8_Rb_treeINSt7__cxx1112basic_stringIcSt11char_traitsIcESaIcEEESt4pairIKS5_NS0_4listISt6vectorIS5_SaIS5_EESaISB_EEEESt10_Select1stISE_ESt4lessIS5_ESaISE_EE24_M_get_insert_unique_posERS7_@Base 6.0.0
 _ZNSt8_Rb_treeINSt7__cxx1112basic_stringIcSt11char_traitsIcESaIcEEESt4pairIKS5_NS0_4listISt6vectorIS5_SaIS5_EESaISB_EEEESt10_Select1stISE_ESt4lessIS5_ESaISE_EE29_M_get_insert_hint_unique_posESt23_Rb_tree_const_iteratorISE_ERS7_@Base 6.0.0
 _ZNSt8_Rb_treeINSt7__cxx1112basic_stringIcSt11char_traitsIcESaIcEEESt4pairIKS5_NS0_4listISt6vectorIS5_SaIS5_EESaISB_EEEESt10_Select1stISE_ESt4lessIS5_ESaISE_EE8_M_eraseEPSt13_Rb_tree_nodeISE_E@Base 6.0.0
 _ZNSt8_Rb_treeINSt7__cxx1112basic_stringIcSt11char_traitsIcESaIcEEESt4pairIKS5_PKcESt10_Select1stISA_ESt4lessIS5_ESaISA_EE24_M_get_insert_unique_posERS7_@Base 6.0.0
 _ZNSt8_Rb_treeINSt7__cxx1112basic_stringIcSt11char_traitsIcESaIcEEESt4pairIKS5_PKcESt10_Select1stISA_ESt4lessIS5_ESaISA_EE29_M_get_insert_hint_unique_posESt23_Rb_tree_const_iteratorISA_ERS7_@Base 6.0.0
 _ZNSt8_Rb_treeINSt7__cxx1112basic_stringIcSt11char_traitsIcESaIcEEESt4pairIKS5_PKcESt10_Select1stISA_ESt4lessIS5_ESaISA_EE8_M_eraseEPSt13_Rb_tree_nodeISA_E@Base 6.0.0
 _ZNSt8_Rb_treeINSt7__cxx1112basic_stringIcSt11char_traitsIcESaIcEEESt4pairIKS5_S5_ESt10_Select1stIS8_ESt4lessIS5_ESaIS8_EE22_M_emplace_hint_uniqueIJRKSt21piecewise_construct_tSt5tupleIJRS7_EESJ_IJEEEEESt17_Rb_tree_iteratorIS8_ESt23_Rb_tree_const_iteratorIS8_EDpOT_@Base 6.0.0
 _ZNSt8_Rb_treeINSt7__cxx1112basic_stringIcSt11char_traitsIcESaIcEEESt4pairIKS5_S5_ESt10_Select1stIS8_ESt4lessIS5_ESaIS8_EE24_M_get_insert_unique_posERS7_@Base 6.0.0
 _ZNSt8_Rb_treeINSt7__cxx1112basic_stringIcSt11char_traitsIcESaIcEEESt4pairIKS5_S5_ESt10_Select1stIS8_ESt4lessIS5_ESaIS8_EE29_M_get_insert_hint_unique_posESt23_Rb_tree_const_iteratorIS8_ERS7_@Base 6.0.0
 _ZNSt8_Rb_treeINSt7__cxx1112basic_stringIcSt11char_traitsIcESaIcEEESt4pairIKS5_S5_ESt10_Select1stIS8_ESt4lessIS5_ESaIS8_EE8_M_eraseEPSt13_Rb_tree_nodeIS8_E@Base 6.0.0
 _ZNSt8_Rb_treeINSt7__cxx1112basic_stringIcSt11char_traitsIcESaIcEEESt4pairIKS5_St6vectorIS5_SaIS5_EEESt10_Select1stISB_ESt4lessIS5_ESaISB_EE22_M_emplace_hint_uniqueIJRKSt21piecewise_construct_tSt5tupleIJRS7_EESM_IJEEEEESt17_Rb_tree_iteratorISB_ESt23_Rb_tree_const_iteratorISB_EDpOT_@Base 6.0.0
 _ZNSt8_Rb_treeINSt7__cxx1112basic_stringIcSt11char_traitsIcESaIcEEESt4pairIKS5_St6vectorIS5_SaIS5_EEESt10_Select1stISB_ESt4lessIS5_ESaISB_EE24_M_get_insert_unique_posERS7_@Base 6.0.0
 _ZNSt8_Rb_treeINSt7__cxx1112basic_stringIcSt11char_traitsIcESaIcEEESt4pairIKS5_St6vectorIS5_SaIS5_EEESt10_Select1stISB_ESt4lessIS5_ESaISB_EE29_M_get_insert_hint_unique_posESt23_Rb_tree_const_iteratorISB_ERS7_@Base 6.0.0
 _ZNSt8_Rb_treeINSt7__cxx1112basic_stringIcSt11char_traitsIcESaIcEEESt4pairIKS5_St6vectorIS5_SaIS5_EEESt10_Select1stISB_ESt4lessIS5_ESaISB_EE8_M_eraseEPSt13_Rb_tree_nodeISB_E@Base 6.0.0
 _ZNSt8_Rb_treeINSt7__cxx1112basic_stringIcSt11char_traitsIcESaIcEEESt4pairIKS5_St6vectorIS6_IS5_S5_ESaIS9_EEESt10_Select1stISC_ESt4lessIS5_ESaISC_EE22_M_emplace_hint_uniqueIJRKSt21piecewise_construct_tSt5tupleIJOS5_EESN_IJEEEEESt17_Rb_tree_iteratorISC_ESt23_Rb_tree_const_iteratorISC_EDpOT_@Base 6.3.1
 _ZNSt8_Rb_treeINSt7__cxx1112basic_stringIcSt11char_traitsIcESaIcEEESt4pairIKS5_St6vectorIS6_IS5_S5_ESaIS9_EEESt10_Select1stISC_ESt4lessIS5_ESaISC_EE24_M_get_insert_unique_posERS7_@Base 6.3.1
 _ZNSt8_Rb_treeINSt7__cxx1112basic_stringIcSt11char_traitsIcESaIcEEESt4pairIKS5_St6vectorIS6_IS5_S5_ESaIS9_EEESt10_Select1stISC_ESt4lessIS5_ESaISC_EE29_M_get_insert_hint_unique_posESt23_Rb_tree_const_iteratorISC_ERS7_@Base 6.3.1
 _ZNSt8_Rb_treeINSt7__cxx1112basic_stringIcSt11char_traitsIcESaIcEEESt4pairIKS5_St6vectorIS6_IS5_S5_ESaIS9_EEESt10_Select1stISC_ESt4lessIS5_ESaISC_EE4findERS7_@Base 6.3.1
 _ZNSt8_Rb_treeINSt7__cxx1112basic_stringIcSt11char_traitsIcESaIcEEESt4pairIKS5_St6vectorIS6_IS5_S5_ESaIS9_EEESt10_Select1stISC_ESt4lessIS5_ESaISC_EE8_M_eraseEPSt13_Rb_tree_nodeISC_E@Base 6.3.1
 _ZNSt8_Rb_treeINSt7__cxx1112basic_stringIcSt11char_traitsIcESaIcEEESt4pairIKS5_dESt10_Select1stIS8_ESt4lessIS5_ESaIS8_EE22_M_emplace_hint_uniqueIJRKSt21piecewise_construct_tSt5tupleIJRS7_EESJ_IJEEEEESt17_Rb_tree_iteratorIS8_ESt23_Rb_tree_const_iteratorIS8_EDpOT_@Base 6.0.0
 _ZNSt8_Rb_treeINSt7__cxx1112basic_stringIcSt11char_traitsIcESaIcEEESt4pairIKS5_dESt10_Select1stIS8_ESt4lessIS5_ESaIS8_EE24_M_get_insert_unique_posERS7_@Base 6.0.0
 _ZNSt8_Rb_treeINSt7__cxx1112basic_stringIcSt11char_traitsIcESaIcEEESt4pairIKS5_dESt10_Select1stIS8_ESt4lessIS5_ESaIS8_EE29_M_get_insert_hint_unique_posESt23_Rb_tree_const_iteratorIS8_ERS7_@Base 6.0.0
 _ZNSt8_Rb_treeINSt7__cxx1112basic_stringIcSt11char_traitsIcESaIcEEESt4pairIKS5_dESt10_Select1stIS8_ESt4lessIS5_ESaIS8_EE4findERS7_@Base 6.0.0
 _ZNSt8_Rb_treeINSt7__cxx1112basic_stringIcSt11char_traitsIcESaIcEEESt4pairIKS5_dESt10_Select1stIS8_ESt4lessIS5_ESaIS8_EE8_M_eraseEPSt13_Rb_tree_nodeIS8_E@Base 6.0.0
 _ZNSt8_Rb_treeISt3setINSt7__cxx1112basic_stringIcSt11char_traitsIcESaIcEEESt4lessIS6_ESaIS6_EESA_St9_IdentityISA_ES7_ISA_ESaISA_EE10_M_insert_IRKSA_NSF_11_Alloc_nodeEEESt17_Rb_tree_iteratorISA_EPSt18_Rb_tree_node_baseSN_OT_RT0_@Base 6.0.0
 _ZNSt8_Rb_treeISt3setINSt7__cxx1112basic_stringIcSt11char_traitsIcESaIcEEESt4lessIS6_ESaIS6_EESA_St9_IdentityISA_ES7_ISA_ESaISA_EE24_M_get_insert_unique_posERKSA_@Base 6.0.0
 _ZNSt8_Rb_treeISt3setINSt7__cxx1112basic_stringIcSt11char_traitsIcESaIcEEESt4lessIS6_ESaIS6_EESA_St9_IdentityISA_ES7_ISA_ESaISA_EE8_M_eraseEPSt13_Rb_tree_nodeISA_E@Base 6.0.0
 _ZNSt8_Rb_treeISt4pairIN5osgeo4proj2io16AuthorityFactory10ObjectTypeENSt7__cxx1112basic_stringIcSt11char_traitsIcESaIcEEEES0_IKSC_NS6_4listIS0_ISB_SB_ESaISF_EEEESt10_Select1stISI_ESt4lessISC_ESaISI_EE22_M_emplace_hint_uniqueIJRKSt21piecewise_construct_tSt5tupleIJRSD_EEST_IJEEEEESt17_Rb_tree_iteratorISI_ESt23_Rb_tree_const_iteratorISI_EDpOT_@Base 6.3.0
 _ZNSt8_Rb_treeISt4pairIN5osgeo4proj2io16AuthorityFactory10ObjectTypeENSt7__cxx1112basic_stringIcSt11char_traitsIcESaIcEEEES0_IKSC_NS6_4listIS0_ISB_SB_ESaISF_EEEESt10_Select1stISI_ESt4lessISC_ESaISI_EE24_M_get_insert_unique_posERSD_@Base 6.3.0
 _ZNSt8_Rb_treeISt4pairIN5osgeo4proj2io16AuthorityFactory10ObjectTypeENSt7__cxx1112basic_stringIcSt11char_traitsIcESaIcEEEES0_IKSC_NS6_4listIS0_ISB_SB_ESaISF_EEEESt10_Select1stISI_ESt4lessISC_ESaISI_EE29_M_get_insert_hint_unique_posESt23_Rb_tree_const_iteratorISI_ERSD_@Base 6.3.0
 _ZNSt8_Rb_treeISt4pairIN5osgeo4proj2io16AuthorityFactory10ObjectTypeENSt7__cxx1112basic_stringIcSt11char_traitsIcESaIcEEEES0_IKSC_NS6_4listIS0_ISB_SB_ESaISF_EEEESt10_Select1stISI_ESt4lessISC_ESaISI_EE8_M_eraseEPSt13_Rb_tree_nodeISI_E@Base 6.3.0
 _ZNSt8_Rb_treeISt4pairINSt7__cxx1112basic_stringIcSt11char_traitsIcESaIcEEES6_ES7_St9_IdentityIS7_ESt4lessIS7_ESaIS7_EE16_M_insert_uniqueIS7_EES0_ISt17_Rb_tree_iteratorIS7_EbEOT_@Base 6.0.0
 _ZNSt8_Rb_treeISt4pairINSt7__cxx1112basic_stringIcSt11char_traitsIcESaIcEEES6_ES7_St9_IdentityIS7_ESt4lessIS7_ESaIS7_EE4findERKS7_@Base 6.0.0
 _ZNSt8_Rb_treeISt4pairINSt7__cxx1112basic_stringIcSt11char_traitsIcESaIcEEES6_ES7_St9_IdentityIS7_ESt4lessIS7_ESaIS7_EE8_M_eraseEPSt13_Rb_tree_nodeIS7_E@Base 6.0.0
 _ZSteqIcEN9__gnu_cxx11__enable_ifIXsrSt9__is_charIT_E7__valueEbE6__typeERKNSt7__cxx1112basic_stringIS3_St11char_traitsIS3_ESaIS3_EEESE_@Base 6.0.0
 _ZStplIcSt11char_traitsIcESaIcEENSt7__cxx1112basic_stringIT_T0_T1_EEOS8_PKS5_@Base 6.0.0
 _ZStplIcSt11char_traitsIcESaIcEENSt7__cxx1112basic_stringIT_T0_T1_EEOS8_RKS8_@Base 6.0.0
 _ZStplIcSt11char_traitsIcESaIcEENSt7__cxx1112basic_stringIT_T0_T1_EEPKS5_OS8_@Base 6.0.0
 _ZStplIcSt11char_traitsIcESaIcEENSt7__cxx1112basic_stringIT_T0_T1_EEPKS5_RKS8_@Base 6.0.0
 _ZStplIcSt11char_traitsIcESaIcEENSt7__cxx1112basic_stringIT_T0_T1_EERKS8_PKS5_@Base 6.0.0
 _ZStplIcSt11char_traitsIcESaIcEENSt7__cxx1112basic_stringIT_T0_T1_EERKS8_SA_@Base 6.0.0
 _ZTIN5osgeo4proj2cs10TemporalCSE@Base 6.0.0
 _ZTIN5osgeo4proj2cs10VerticalCSE@Base 6.0.0
 _ZTIN5osgeo4proj2cs11CartesianCSE@Base 6.0.0
 _ZTIN5osgeo4proj2cs11SphericalCSE@Base 6.0.0
 _ZTIN5osgeo4proj2cs12ParametricCSE@Base 6.0.0
 _ZTIN5osgeo4proj2cs13EllipsoidalCSE@Base 6.0.0
 _ZTIN5osgeo4proj2cs15TemporalCountCSE@Base 6.0.0
 _ZTIN5osgeo4proj2cs16CoordinateSystemE@Base 6.0.0
 _ZTIN5osgeo4proj2cs17TemporalMeasureCSE@Base 6.0.0
 _ZTIN5osgeo4proj2cs18DateTimeTemporalCSE@Base 6.0.0
 _ZTIN5osgeo4proj2cs20CoordinateSystemAxisE@Base 6.0.0
 _ZTIN5osgeo4proj2cs8MeridianE@Base 6.0.0
 _ZTIN5osgeo4proj2cs9OrdinalCSE@Base 6.0.0
 _ZTIN5osgeo4proj2io14IWKTExportableE@Base 6.0.0
 _ZTIN5osgeo4proj2io15IJSONExportableE@Base 6.2.0
 _ZTIN5osgeo4proj2io16FactoryExceptionE@Base 6.0.0
 _ZTIN5osgeo4proj2io16ParsingExceptionE@Base 6.0.0
 _ZTIN5osgeo4proj2io19FormattingExceptionE@Base 6.0.0
 _ZTIN5osgeo4proj2io21IPROJStringExportableE@Base 6.0.0
 _ZTIN5osgeo4proj2io28NoSuchAuthorityCodeExceptionE@Base 6.0.0
 _ZTIN5osgeo4proj3crs10DerivedCRSE@Base 6.0.0
 _ZTIN5osgeo4proj3crs11CompoundCRSE@Base 6.0.0
 _ZTIN5osgeo4proj3crs11GeodeticCRSE@Base 6.0.0
 _ZTIN5osgeo4proj3crs11TemporalCRSE@Base 6.0.0
 _ZTIN5osgeo4proj3crs11VerticalCRSE@Base 6.0.0
 _ZTIN5osgeo4proj3crs12ProjectedCRSE@Base 6.0.0
 _ZTIN5osgeo4proj3crs13GeographicCRSE@Base 6.0.0
 _ZTIN5osgeo4proj3crs13ParametricCRSE@Base 6.0.0
 _ZTIN5osgeo4proj3crs14EngineeringCRSE@Base 6.0.0
 _ZTIN5osgeo4proj3crs18DerivedCRSTemplateINS1_24DerivedTemporalCRSTraitsEEE@Base 6.0.0
 _ZTIN5osgeo4proj3crs18DerivedCRSTemplateINS1_26DerivedParametricCRSTraitsEEE@Base 6.0.0
 _ZTIN5osgeo4proj3crs18DerivedCRSTemplateINS1_27DerivedEngineeringCRSTraitsEEE@Base 6.0.0
 _ZTIN5osgeo4proj3crs18DerivedGeodeticCRSE@Base 6.0.0
 _ZTIN5osgeo4proj3crs18DerivedVerticalCRSE@Base 6.0.0
 _ZTIN5osgeo4proj3crs19DerivedProjectedCRSE@Base 6.0.0
 _ZTIN5osgeo4proj3crs20DerivedGeographicCRSE@Base 6.0.0
 _ZTIN5osgeo4proj3crs3CRSE@Base 6.0.0
 _ZTIN5osgeo4proj3crs8BoundCRSE@Base 6.0.0
 _ZTIN5osgeo4proj3crs9SingleCRSE@Base 6.0.0
 _ZTIN5osgeo4proj4util10BaseObjectE@Base 6.0.0
 _ZTIN5osgeo4proj4util11IComparableE@Base 6.0.0
 _ZTIN5osgeo4proj4util25InvalidValueTypeExceptionE@Base 6.0.0
 _ZTIN5osgeo4proj4util29UnsupportedOperationExceptionE@Base 6.0.0
 _ZTIN5osgeo4proj4util9ExceptionE@Base 6.0.0
 _ZTIN5osgeo4proj5datum13DatumEnsembleE@Base 6.0.0
 _ZTIN5osgeo4proj5datum13PrimeMeridianE@Base 6.0.0
 _ZTIN5osgeo4proj5datum13TemporalDatumE@Base 6.0.0
 _ZTIN5osgeo4proj5datum15ParametricDatumE@Base 6.0.0
 _ZTIN5osgeo4proj5datum16EngineeringDatumE@Base 6.0.0
 _ZTIN5osgeo4proj5datum22GeodeticReferenceFrameE@Base 6.0.0
 _ZTIN5osgeo4proj5datum22VerticalReferenceFrameE@Base 6.0.0
 _ZTIN5osgeo4proj5datum29DynamicGeodeticReferenceFrameE@Base 6.0.0
 _ZTIN5osgeo4proj5datum29DynamicVerticalReferenceFrameE@Base 6.0.0
 _ZTIN5osgeo4proj5datum5DatumE@Base 6.0.0
 _ZTIN5osgeo4proj5datum9EllipsoidE@Base 6.0.0
 _ZTIN5osgeo4proj6common11ObjectUsageE@Base 6.0.0
 _ZTIN5osgeo4proj6common12ObjectDomainE@Base 6.0.0
 _ZTIN5osgeo4proj6common13UnitOfMeasureE@Base 6.0.0
 _ZTIN5osgeo4proj6common16IdentifiedObjectE@Base 6.0.0
 _ZTIN5osgeo4proj8metadata10IdentifierE@Base 6.0.0
 _ZTIN5osgeo4proj8metadata14TemporalExtentE@Base 6.0.0
 _ZTIN5osgeo4proj8metadata14VerticalExtentE@Base 6.0.0
 _ZTIN5osgeo4proj8metadata16GeographicExtentE@Base 6.0.0
 _ZTIN5osgeo4proj8metadata18PositionalAccuracyE@Base 6.0.0
 _ZTIN5osgeo4proj8metadata21GeographicBoundingBoxE@Base 6.0.0
 _ZTIN5osgeo4proj8metadata6ExtentE@Base 6.0.0
 _ZTIN5osgeo4proj8metadata8CitationE@Base 6.0.0
 _ZTIN5osgeo4proj9operation10ConversionE@Base 6.0.0
 _ZTIN5osgeo4proj9operation14ParameterValueE@Base 6.0.0
 _ZTIN5osgeo4proj9operation14TransformationE@Base 6.0.0
 _ZTIN5osgeo4proj9operation15OperationMethodE@Base 6.0.0
 _ZTIN5osgeo4proj9operation15SingleOperationE@Base 6.0.0
 _ZTIN5osgeo4proj9operation16InvalidOperationE@Base 6.0.0
 _ZTIN5osgeo4proj9operation18OperationParameterE@Base 6.0.0
 _ZTIN5osgeo4proj9operation19CoordinateOperationE@Base 6.0.0
 _ZTIN5osgeo4proj9operation20PointMotionOperationE@Base 6.0.0
 _ZTIN5osgeo4proj9operation21ConcatenatedOperationE@Base 6.0.0
 _ZTIN5osgeo4proj9operation21GeneralParameterValueE@Base 6.0.0
 _ZTIN5osgeo4proj9operation23OperationParameterValueE@Base 6.0.0
 _ZTIN5osgeo4proj9operation25GeneralOperationParameterE@Base 6.0.0
 _ZTIN5osgeo4proj9operation26CoordinateOperationContextE@Base 6.0.0
 _ZTIN5osgeo4proj9operation26CoordinateOperationFactoryE@Base 6.0.0
 _ZTISt11_Mutex_baseILN9__gnu_cxx12_Lock_policyE2EE@Base 6.0.0
 _ZTISt15_Sp_counted_ptrIPN5osgeo4proj2cs10VerticalCSELN9__gnu_cxx12_Lock_policyE2EE@Base 6.0.0
 _ZTISt15_Sp_counted_ptrIPN5osgeo4proj2cs11CartesianCSELN9__gnu_cxx12_Lock_policyE2EE@Base 6.0.0
 _ZTISt15_Sp_counted_ptrIPN5osgeo4proj2cs11SphericalCSELN9__gnu_cxx12_Lock_policyE2EE@Base 6.0.0
 _ZTISt15_Sp_counted_ptrIPN5osgeo4proj2cs12ParametricCSELN9__gnu_cxx12_Lock_policyE2EE@Base 6.0.0
 _ZTISt15_Sp_counted_ptrIPN5osgeo4proj2cs13EllipsoidalCSELN9__gnu_cxx12_Lock_policyE2EE@Base 6.0.0
 _ZTISt15_Sp_counted_ptrIPN5osgeo4proj2cs15TemporalCountCSELN9__gnu_cxx12_Lock_policyE2EE@Base 6.0.0
 _ZTISt15_Sp_counted_ptrIPN5osgeo4proj2cs17TemporalMeasureCSELN9__gnu_cxx12_Lock_policyE2EE@Base 6.0.0
 _ZTISt15_Sp_counted_ptrIPN5osgeo4proj2cs18DateTimeTemporalCSELN9__gnu_cxx12_Lock_policyE2EE@Base 6.0.0
 _ZTISt15_Sp_counted_ptrIPN5osgeo4proj2cs20CoordinateSystemAxisELN9__gnu_cxx12_Lock_policyE2EE@Base 6.0.0
 _ZTISt15_Sp_counted_ptrIPN5osgeo4proj2cs8MeridianELN9__gnu_cxx12_Lock_policyE2EE@Base 6.0.0
 _ZTISt15_Sp_counted_ptrIPN5osgeo4proj2cs9OrdinalCSELN9__gnu_cxx12_Lock_policyE2EE@Base 6.0.0
 _ZTISt15_Sp_counted_ptrIPN5osgeo4proj2io15DatabaseContextELN9__gnu_cxx12_Lock_policyE2EE@Base 6.0.0
 _ZTISt15_Sp_counted_ptrIPN5osgeo4proj2io16AuthorityFactoryELN9__gnu_cxx12_Lock_policyE2EE@Base 6.0.0
 _ZTISt15_Sp_counted_ptrIPN5osgeo4proj3crs11CompoundCRSELN9__gnu_cxx12_Lock_policyE2EE@Base 6.0.0
 _ZTISt15_Sp_counted_ptrIPN5osgeo4proj3crs11GeodeticCRSELN9__gnu_cxx12_Lock_policyE2EE@Base 6.0.0
 _ZTISt15_Sp_counted_ptrIPN5osgeo4proj3crs11TemporalCRSELN9__gnu_cxx12_Lock_policyE2EE@Base 6.0.0
 _ZTISt15_Sp_counted_ptrIPN5osgeo4proj3crs11VerticalCRSELN9__gnu_cxx12_Lock_policyE2EE@Base 6.0.0
 _ZTISt15_Sp_counted_ptrIPN5osgeo4proj3crs12ProjectedCRSELN9__gnu_cxx12_Lock_policyE2EE@Base 6.0.0
 _ZTISt15_Sp_counted_ptrIPN5osgeo4proj3crs13GeographicCRSELN9__gnu_cxx12_Lock_policyE2EE@Base 6.0.0
 _ZTISt15_Sp_counted_ptrIPN5osgeo4proj3crs13ParametricCRSELN9__gnu_cxx12_Lock_policyE2EE@Base 6.0.0
 _ZTISt15_Sp_counted_ptrIPN5osgeo4proj3crs14EngineeringCRSELN9__gnu_cxx12_Lock_policyE2EE@Base 6.0.0
 _ZTISt15_Sp_counted_ptrIPN5osgeo4proj3crs18DerivedCRSTemplateINS2_24DerivedTemporalCRSTraitsEEELN9__gnu_cxx12_Lock_policyE2EE@Base 6.0.0
 _ZTISt15_Sp_counted_ptrIPN5osgeo4proj3crs18DerivedCRSTemplateINS2_26DerivedParametricCRSTraitsEEELN9__gnu_cxx12_Lock_policyE2EE@Base 6.0.0
 _ZTISt15_Sp_counted_ptrIPN5osgeo4proj3crs18DerivedCRSTemplateINS2_27DerivedEngineeringCRSTraitsEEELN9__gnu_cxx12_Lock_policyE2EE@Base 6.0.0
 _ZTISt15_Sp_counted_ptrIPN5osgeo4proj3crs18DerivedGeodeticCRSELN9__gnu_cxx12_Lock_policyE2EE@Base 6.0.0
 _ZTISt15_Sp_counted_ptrIPN5osgeo4proj3crs18DerivedVerticalCRSELN9__gnu_cxx12_Lock_policyE2EE@Base 6.0.0
 _ZTISt15_Sp_counted_ptrIPN5osgeo4proj3crs19DerivedProjectedCRSELN9__gnu_cxx12_Lock_policyE2EE@Base 6.0.0
 _ZTISt15_Sp_counted_ptrIPN5osgeo4proj3crs20DerivedGeographicCRSELN9__gnu_cxx12_Lock_policyE2EE@Base 6.0.0
 _ZTISt15_Sp_counted_ptrIPN5osgeo4proj3crs8BoundCRSELN9__gnu_cxx12_Lock_policyE2EE@Base 6.0.0
 _ZTISt15_Sp_counted_ptrIPN5osgeo4proj5datum13DatumEnsembleELN9__gnu_cxx12_Lock_policyE2EE@Base 6.0.0
 _ZTISt15_Sp_counted_ptrIPN5osgeo4proj5datum13PrimeMeridianELN9__gnu_cxx12_Lock_policyE2EE@Base 6.0.0
 _ZTISt15_Sp_counted_ptrIPN5osgeo4proj5datum13TemporalDatumELN9__gnu_cxx12_Lock_policyE2EE@Base 6.0.0
 _ZTISt15_Sp_counted_ptrIPN5osgeo4proj5datum15ParametricDatumELN9__gnu_cxx12_Lock_policyE2EE@Base 6.0.0
 _ZTISt15_Sp_counted_ptrIPN5osgeo4proj5datum16EngineeringDatumELN9__gnu_cxx12_Lock_policyE2EE@Base 6.0.0
 _ZTISt15_Sp_counted_ptrIPN5osgeo4proj5datum22GeodeticReferenceFrameELN9__gnu_cxx12_Lock_policyE2EE@Base 6.0.0
 _ZTISt15_Sp_counted_ptrIPN5osgeo4proj5datum22VerticalReferenceFrameELN9__gnu_cxx12_Lock_policyE2EE@Base 6.0.0
 _ZTISt15_Sp_counted_ptrIPN5osgeo4proj5datum29DynamicGeodeticReferenceFrameELN9__gnu_cxx12_Lock_policyE2EE@Base 6.0.0
 _ZTISt15_Sp_counted_ptrIPN5osgeo4proj5datum29DynamicVerticalReferenceFrameELN9__gnu_cxx12_Lock_policyE2EE@Base 6.0.0
 _ZTISt15_Sp_counted_ptrIPN5osgeo4proj5datum9EllipsoidELN9__gnu_cxx12_Lock_policyE2EE@Base 6.0.0
 _ZTISt15_Sp_counted_ptrIPN5osgeo4proj6common12ObjectDomainELN9__gnu_cxx12_Lock_policyE2EE@Base 6.0.0
 _ZTISt15_Sp_counted_ptrIPN5osgeo4proj8metadata10IdentifierELN9__gnu_cxx12_Lock_policyE2EE@Base 6.0.0
 _ZTISt15_Sp_counted_ptrIPN5osgeo4proj8metadata14TemporalExtentELN9__gnu_cxx12_Lock_policyE2EE@Base 6.0.0
 _ZTISt15_Sp_counted_ptrIPN5osgeo4proj8metadata14VerticalExtentELN9__gnu_cxx12_Lock_policyE2EE@Base 6.0.0
 _ZTISt15_Sp_counted_ptrIPN5osgeo4proj8metadata18PositionalAccuracyELN9__gnu_cxx12_Lock_policyE2EE@Base 6.0.0
 _ZTISt15_Sp_counted_ptrIPN5osgeo4proj8metadata21GeographicBoundingBoxELN9__gnu_cxx12_Lock_policyE2EE@Base 6.0.0
 _ZTISt15_Sp_counted_ptrIPN5osgeo4proj8metadata6ExtentELN9__gnu_cxx12_Lock_policyE2EE@Base 6.0.0
 _ZTISt15_Sp_counted_ptrIPN5osgeo4proj9operation10ConversionELN9__gnu_cxx12_Lock_policyE2EE@Base 6.0.0
 _ZTISt15_Sp_counted_ptrIPN5osgeo4proj9operation14ParameterValueELN9__gnu_cxx12_Lock_policyE2EE@Base 6.0.0
 _ZTISt15_Sp_counted_ptrIPN5osgeo4proj9operation14TransformationELN9__gnu_cxx12_Lock_policyE2EE@Base 6.0.0
 _ZTISt15_Sp_counted_ptrIPN5osgeo4proj9operation15OperationMethodELN9__gnu_cxx12_Lock_policyE2EE@Base 6.0.0
 _ZTISt15_Sp_counted_ptrIPN5osgeo4proj9operation18OperationParameterELN9__gnu_cxx12_Lock_policyE2EE@Base 6.0.0
 _ZTISt15_Sp_counted_ptrIPN5osgeo4proj9operation21ConcatenatedOperationELN9__gnu_cxx12_Lock_policyE2EE@Base 6.0.0
 _ZTISt15_Sp_counted_ptrIPN5osgeo4proj9operation23OperationParameterValueELN9__gnu_cxx12_Lock_policyE2EE@Base 6.0.0
 _ZTISt16_Sp_counted_baseILN9__gnu_cxx12_Lock_policyE2EE@Base 6.0.0
 _ZTISt23_Sp_counted_ptr_inplaceIN5osgeo4proj6common13UnitOfMeasureESaIS3_ELN9__gnu_cxx12_Lock_policyE2EE@Base 6.0.0
 _ZTSN5osgeo4proj2cs10TemporalCSE@Base 6.0.0
 _ZTSN5osgeo4proj2cs10VerticalCSE@Base 6.0.0
 _ZTSN5osgeo4proj2cs11CartesianCSE@Base 6.0.0
 _ZTSN5osgeo4proj2cs11SphericalCSE@Base 6.0.0
 _ZTSN5osgeo4proj2cs12ParametricCSE@Base 6.0.0
 _ZTSN5osgeo4proj2cs13EllipsoidalCSE@Base 6.0.0
 _ZTSN5osgeo4proj2cs15TemporalCountCSE@Base 6.0.0
 _ZTSN5osgeo4proj2cs16CoordinateSystemE@Base 6.0.0
 _ZTSN5osgeo4proj2cs17TemporalMeasureCSE@Base 6.0.0
 _ZTSN5osgeo4proj2cs18DateTimeTemporalCSE@Base 6.0.0
 _ZTSN5osgeo4proj2cs20CoordinateSystemAxisE@Base 6.0.0
 _ZTSN5osgeo4proj2cs8MeridianE@Base 6.0.0
 _ZTSN5osgeo4proj2cs9OrdinalCSE@Base 6.0.0
 _ZTSN5osgeo4proj2io14IWKTExportableE@Base 6.0.0
 _ZTSN5osgeo4proj2io15IJSONExportableE@Base 6.2.0
 _ZTSN5osgeo4proj2io16FactoryExceptionE@Base 6.0.0
 _ZTSN5osgeo4proj2io16ParsingExceptionE@Base 6.0.0
 _ZTSN5osgeo4proj2io19FormattingExceptionE@Base 6.0.0
 _ZTSN5osgeo4proj2io21IPROJStringExportableE@Base 6.0.0
 _ZTSN5osgeo4proj2io28NoSuchAuthorityCodeExceptionE@Base 6.0.0
 _ZTSN5osgeo4proj3crs10DerivedCRSE@Base 6.0.0
 _ZTSN5osgeo4proj3crs11CompoundCRSE@Base 6.0.0
 _ZTSN5osgeo4proj3crs11GeodeticCRSE@Base 6.0.0
 _ZTSN5osgeo4proj3crs11TemporalCRSE@Base 6.0.0
 _ZTSN5osgeo4proj3crs11VerticalCRSE@Base 6.0.0
 _ZTSN5osgeo4proj3crs12ProjectedCRSE@Base 6.0.0
 _ZTSN5osgeo4proj3crs13GeographicCRSE@Base 6.0.0
 _ZTSN5osgeo4proj3crs13ParametricCRSE@Base 6.0.0
 _ZTSN5osgeo4proj3crs14EngineeringCRSE@Base 6.0.0
 _ZTSN5osgeo4proj3crs18DerivedCRSTemplateINS1_24DerivedTemporalCRSTraitsEEE@Base 6.0.0
 _ZTSN5osgeo4proj3crs18DerivedCRSTemplateINS1_26DerivedParametricCRSTraitsEEE@Base 6.0.0
 _ZTSN5osgeo4proj3crs18DerivedCRSTemplateINS1_27DerivedEngineeringCRSTraitsEEE@Base 6.0.0
 _ZTSN5osgeo4proj3crs18DerivedGeodeticCRSE@Base 6.0.0
 _ZTSN5osgeo4proj3crs18DerivedVerticalCRSE@Base 6.0.0
 _ZTSN5osgeo4proj3crs19DerivedProjectedCRSE@Base 6.0.0
 _ZTSN5osgeo4proj3crs20DerivedGeographicCRSE@Base 6.0.0
 _ZTSN5osgeo4proj3crs3CRSE@Base 6.0.0
 _ZTSN5osgeo4proj3crs8BoundCRSE@Base 6.0.0
 _ZTSN5osgeo4proj3crs9SingleCRSE@Base 6.0.0
 _ZTSN5osgeo4proj4util10BaseObjectE@Base 6.0.0
 _ZTSN5osgeo4proj4util11IComparableE@Base 6.0.0
 _ZTSN5osgeo4proj4util25InvalidValueTypeExceptionE@Base 6.0.0
 _ZTSN5osgeo4proj4util29UnsupportedOperationExceptionE@Base 6.0.0
 _ZTSN5osgeo4proj4util9ExceptionE@Base 6.0.0
 _ZTSN5osgeo4proj5datum13DatumEnsembleE@Base 6.0.0
 _ZTSN5osgeo4proj5datum13PrimeMeridianE@Base 6.0.0
 _ZTSN5osgeo4proj5datum13TemporalDatumE@Base 6.0.0
 _ZTSN5osgeo4proj5datum15ParametricDatumE@Base 6.0.0
 _ZTSN5osgeo4proj5datum16EngineeringDatumE@Base 6.0.0
 _ZTSN5osgeo4proj5datum22GeodeticReferenceFrameE@Base 6.0.0
 _ZTSN5osgeo4proj5datum22VerticalReferenceFrameE@Base 6.0.0
 _ZTSN5osgeo4proj5datum29DynamicGeodeticReferenceFrameE@Base 6.0.0
 _ZTSN5osgeo4proj5datum29DynamicVerticalReferenceFrameE@Base 6.0.0
 _ZTSN5osgeo4proj5datum5DatumE@Base 6.0.0
 _ZTSN5osgeo4proj5datum9EllipsoidE@Base 6.0.0
 _ZTSN5osgeo4proj6common11ObjectUsageE@Base 6.0.0
 _ZTSN5osgeo4proj6common12ObjectDomainE@Base 6.0.0
 _ZTSN5osgeo4proj6common13UnitOfMeasureE@Base 6.0.0
 _ZTSN5osgeo4proj6common16IdentifiedObjectE@Base 6.0.0
 _ZTSN5osgeo4proj8metadata10IdentifierE@Base 6.0.0
 _ZTSN5osgeo4proj8metadata14TemporalExtentE@Base 6.0.0
 _ZTSN5osgeo4proj8metadata14VerticalExtentE@Base 6.0.0
 _ZTSN5osgeo4proj8metadata16GeographicExtentE@Base 6.0.0
 _ZTSN5osgeo4proj8metadata18PositionalAccuracyE@Base 6.0.0
 _ZTSN5osgeo4proj8metadata21GeographicBoundingBoxE@Base 6.0.0
 _ZTSN5osgeo4proj8metadata6ExtentE@Base 6.0.0
 _ZTSN5osgeo4proj8metadata8CitationE@Base 6.0.0
 _ZTSN5osgeo4proj9operation10ConversionE@Base 6.0.0
 _ZTSN5osgeo4proj9operation14ParameterValueE@Base 6.0.0
 _ZTSN5osgeo4proj9operation14TransformationE@Base 6.0.0
 _ZTSN5osgeo4proj9operation15OperationMethodE@Base 6.0.0
 _ZTSN5osgeo4proj9operation15SingleOperationE@Base 6.0.0
 _ZTSN5osgeo4proj9operation16InvalidOperationE@Base 6.0.0
 _ZTSN5osgeo4proj9operation18OperationParameterE@Base 6.0.0
 _ZTSN5osgeo4proj9operation19CoordinateOperationE@Base 6.0.0
 _ZTSN5osgeo4proj9operation20PointMotionOperationE@Base 6.0.0
 _ZTSN5osgeo4proj9operation21ConcatenatedOperationE@Base 6.0.0
 _ZTSN5osgeo4proj9operation21GeneralParameterValueE@Base 6.0.0
 _ZTSN5osgeo4proj9operation23OperationParameterValueE@Base 6.0.0
 _ZTSN5osgeo4proj9operation25GeneralOperationParameterE@Base 6.0.0
 _ZTSN5osgeo4proj9operation26CoordinateOperationContextE@Base 6.0.0
 _ZTSN5osgeo4proj9operation26CoordinateOperationFactoryE@Base 6.0.0
 _ZTSSt11_Mutex_baseILN9__gnu_cxx12_Lock_policyE2EE@Base 6.0.0
 _ZTSSt15_Sp_counted_ptrIPN5osgeo4proj2cs10VerticalCSELN9__gnu_cxx12_Lock_policyE2EE@Base 6.0.0
 _ZTSSt15_Sp_counted_ptrIPN5osgeo4proj2cs11CartesianCSELN9__gnu_cxx12_Lock_policyE2EE@Base 6.0.0
 _ZTSSt15_Sp_counted_ptrIPN5osgeo4proj2cs11SphericalCSELN9__gnu_cxx12_Lock_policyE2EE@Base 6.0.0
 _ZTSSt15_Sp_counted_ptrIPN5osgeo4proj2cs12ParametricCSELN9__gnu_cxx12_Lock_policyE2EE@Base 6.0.0
 _ZTSSt15_Sp_counted_ptrIPN5osgeo4proj2cs13EllipsoidalCSELN9__gnu_cxx12_Lock_policyE2EE@Base 6.0.0
 _ZTSSt15_Sp_counted_ptrIPN5osgeo4proj2cs15TemporalCountCSELN9__gnu_cxx12_Lock_policyE2EE@Base 6.0.0
 _ZTSSt15_Sp_counted_ptrIPN5osgeo4proj2cs17TemporalMeasureCSELN9__gnu_cxx12_Lock_policyE2EE@Base 6.0.0
 _ZTSSt15_Sp_counted_ptrIPN5osgeo4proj2cs18DateTimeTemporalCSELN9__gnu_cxx12_Lock_policyE2EE@Base 6.0.0
 _ZTSSt15_Sp_counted_ptrIPN5osgeo4proj2cs20CoordinateSystemAxisELN9__gnu_cxx12_Lock_policyE2EE@Base 6.0.0
 _ZTSSt15_Sp_counted_ptrIPN5osgeo4proj2cs8MeridianELN9__gnu_cxx12_Lock_policyE2EE@Base 6.0.0
 _ZTSSt15_Sp_counted_ptrIPN5osgeo4proj2cs9OrdinalCSELN9__gnu_cxx12_Lock_policyE2EE@Base 6.0.0
 _ZTSSt15_Sp_counted_ptrIPN5osgeo4proj2io15DatabaseContextELN9__gnu_cxx12_Lock_policyE2EE@Base 6.0.0
 _ZTSSt15_Sp_counted_ptrIPN5osgeo4proj2io16AuthorityFactoryELN9__gnu_cxx12_Lock_policyE2EE@Base 6.0.0
 _ZTSSt15_Sp_counted_ptrIPN5osgeo4proj3crs11CompoundCRSELN9__gnu_cxx12_Lock_policyE2EE@Base 6.0.0
 _ZTSSt15_Sp_counted_ptrIPN5osgeo4proj3crs11GeodeticCRSELN9__gnu_cxx12_Lock_policyE2EE@Base 6.0.0
 _ZTSSt15_Sp_counted_ptrIPN5osgeo4proj3crs11TemporalCRSELN9__gnu_cxx12_Lock_policyE2EE@Base 6.0.0
 _ZTSSt15_Sp_counted_ptrIPN5osgeo4proj3crs11VerticalCRSELN9__gnu_cxx12_Lock_policyE2EE@Base 6.0.0
 _ZTSSt15_Sp_counted_ptrIPN5osgeo4proj3crs12ProjectedCRSELN9__gnu_cxx12_Lock_policyE2EE@Base 6.0.0
 _ZTSSt15_Sp_counted_ptrIPN5osgeo4proj3crs13GeographicCRSELN9__gnu_cxx12_Lock_policyE2EE@Base 6.0.0
 _ZTSSt15_Sp_counted_ptrIPN5osgeo4proj3crs13ParametricCRSELN9__gnu_cxx12_Lock_policyE2EE@Base 6.0.0
 _ZTSSt15_Sp_counted_ptrIPN5osgeo4proj3crs14EngineeringCRSELN9__gnu_cxx12_Lock_policyE2EE@Base 6.0.0
 _ZTSSt15_Sp_counted_ptrIPN5osgeo4proj3crs18DerivedCRSTemplateINS2_24DerivedTemporalCRSTraitsEEELN9__gnu_cxx12_Lock_policyE2EE@Base 6.0.0
 _ZTSSt15_Sp_counted_ptrIPN5osgeo4proj3crs18DerivedCRSTemplateINS2_26DerivedParametricCRSTraitsEEELN9__gnu_cxx12_Lock_policyE2EE@Base 6.0.0
 _ZTSSt15_Sp_counted_ptrIPN5osgeo4proj3crs18DerivedCRSTemplateINS2_27DerivedEngineeringCRSTraitsEEELN9__gnu_cxx12_Lock_policyE2EE@Base 6.0.0
 _ZTSSt15_Sp_counted_ptrIPN5osgeo4proj3crs18DerivedGeodeticCRSELN9__gnu_cxx12_Lock_policyE2EE@Base 6.0.0
 _ZTSSt15_Sp_counted_ptrIPN5osgeo4proj3crs18DerivedVerticalCRSELN9__gnu_cxx12_Lock_policyE2EE@Base 6.0.0
 _ZTSSt15_Sp_counted_ptrIPN5osgeo4proj3crs19DerivedProjectedCRSELN9__gnu_cxx12_Lock_policyE2EE@Base 6.0.0
 _ZTSSt15_Sp_counted_ptrIPN5osgeo4proj3crs20DerivedGeographicCRSELN9__gnu_cxx12_Lock_policyE2EE@Base 6.0.0
 _ZTSSt15_Sp_counted_ptrIPN5osgeo4proj3crs8BoundCRSELN9__gnu_cxx12_Lock_policyE2EE@Base 6.0.0
 _ZTSSt15_Sp_counted_ptrIPN5osgeo4proj5datum13DatumEnsembleELN9__gnu_cxx12_Lock_policyE2EE@Base 6.0.0
 _ZTSSt15_Sp_counted_ptrIPN5osgeo4proj5datum13PrimeMeridianELN9__gnu_cxx12_Lock_policyE2EE@Base 6.0.0
 _ZTSSt15_Sp_counted_ptrIPN5osgeo4proj5datum13TemporalDatumELN9__gnu_cxx12_Lock_policyE2EE@Base 6.0.0
 _ZTSSt15_Sp_counted_ptrIPN5osgeo4proj5datum15ParametricDatumELN9__gnu_cxx12_Lock_policyE2EE@Base 6.0.0
 _ZTSSt15_Sp_counted_ptrIPN5osgeo4proj5datum16EngineeringDatumELN9__gnu_cxx12_Lock_policyE2EE@Base 6.0.0
 _ZTSSt15_Sp_counted_ptrIPN5osgeo4proj5datum22GeodeticReferenceFrameELN9__gnu_cxx12_Lock_policyE2EE@Base 6.0.0
 _ZTSSt15_Sp_counted_ptrIPN5osgeo4proj5datum22VerticalReferenceFrameELN9__gnu_cxx12_Lock_policyE2EE@Base 6.0.0
 _ZTSSt15_Sp_counted_ptrIPN5osgeo4proj5datum29DynamicGeodeticReferenceFrameELN9__gnu_cxx12_Lock_policyE2EE@Base 6.0.0
 _ZTSSt15_Sp_counted_ptrIPN5osgeo4proj5datum29DynamicVerticalReferenceFrameELN9__gnu_cxx12_Lock_policyE2EE@Base 6.0.0
 _ZTSSt15_Sp_counted_ptrIPN5osgeo4proj5datum9EllipsoidELN9__gnu_cxx12_Lock_policyE2EE@Base 6.0.0
 _ZTSSt15_Sp_counted_ptrIPN5osgeo4proj6common12ObjectDomainELN9__gnu_cxx12_Lock_policyE2EE@Base 6.0.0
 _ZTSSt15_Sp_counted_ptrIPN5osgeo4proj8metadata10IdentifierELN9__gnu_cxx12_Lock_policyE2EE@Base 6.0.0
 _ZTSSt15_Sp_counted_ptrIPN5osgeo4proj8metadata14TemporalExtentELN9__gnu_cxx12_Lock_policyE2EE@Base 6.0.0
 _ZTSSt15_Sp_counted_ptrIPN5osgeo4proj8metadata14VerticalExtentELN9__gnu_cxx12_Lock_policyE2EE@Base 6.0.0
 _ZTSSt15_Sp_counted_ptrIPN5osgeo4proj8metadata18PositionalAccuracyELN9__gnu_cxx12_Lock_policyE2EE@Base 6.0.0
 _ZTSSt15_Sp_counted_ptrIPN5osgeo4proj8metadata21GeographicBoundingBoxELN9__gnu_cxx12_Lock_policyE2EE@Base 6.0.0
 _ZTSSt15_Sp_counted_ptrIPN5osgeo4proj8metadata6ExtentELN9__gnu_cxx12_Lock_policyE2EE@Base 6.0.0
 _ZTSSt15_Sp_counted_ptrIPN5osgeo4proj9operation10ConversionELN9__gnu_cxx12_Lock_policyE2EE@Base 6.0.0
 _ZTSSt15_Sp_counted_ptrIPN5osgeo4proj9operation14ParameterValueELN9__gnu_cxx12_Lock_policyE2EE@Base 6.0.0
 _ZTSSt15_Sp_counted_ptrIPN5osgeo4proj9operation14TransformationELN9__gnu_cxx12_Lock_policyE2EE@Base 6.0.0
 _ZTSSt15_Sp_counted_ptrIPN5osgeo4proj9operation15OperationMethodELN9__gnu_cxx12_Lock_policyE2EE@Base 6.0.0
 _ZTSSt15_Sp_counted_ptrIPN5osgeo4proj9operation18OperationParameterELN9__gnu_cxx12_Lock_policyE2EE@Base 6.0.0
 _ZTSSt15_Sp_counted_ptrIPN5osgeo4proj9operation21ConcatenatedOperationELN9__gnu_cxx12_Lock_policyE2EE@Base 6.0.0
 _ZTSSt15_Sp_counted_ptrIPN5osgeo4proj9operation23OperationParameterValueELN9__gnu_cxx12_Lock_policyE2EE@Base 6.0.0
 _ZTSSt16_Sp_counted_baseILN9__gnu_cxx12_Lock_policyE2EE@Base 6.0.0
 _ZTSSt19_Sp_make_shared_tag@Base 6.0.0
 _ZTSSt23_Sp_counted_ptr_inplaceIN5osgeo4proj6common13UnitOfMeasureESaIS3_ELN9__gnu_cxx12_Lock_policyE2EE@Base 6.0.0
 _ZTTN5osgeo4proj3crs10DerivedCRSE@Base 6.0.0
 _ZTTN5osgeo4proj3crs11GeodeticCRSE@Base 6.0.0
 _ZTTN5osgeo4proj3crs11TemporalCRSE@Base 6.0.0
 _ZTTN5osgeo4proj3crs11VerticalCRSE@Base 6.0.0
 _ZTTN5osgeo4proj3crs12ProjectedCRSE@Base 6.0.0
 _ZTTN5osgeo4proj3crs13GeographicCRSE@Base 6.0.0
 _ZTTN5osgeo4proj3crs13ParametricCRSE@Base 6.0.0
 _ZTTN5osgeo4proj3crs14EngineeringCRSE@Base 6.0.0
 _ZTTN5osgeo4proj3crs18DerivedCRSTemplateINS1_24DerivedTemporalCRSTraitsEEE@Base 6.0.0
 _ZTTN5osgeo4proj3crs18DerivedCRSTemplateINS1_26DerivedParametricCRSTraitsEEE@Base 6.0.0
 _ZTTN5osgeo4proj3crs18DerivedCRSTemplateINS1_27DerivedEngineeringCRSTraitsEEE@Base 6.0.0
 _ZTTN5osgeo4proj3crs18DerivedGeodeticCRSE@Base 6.0.0
 _ZTTN5osgeo4proj3crs18DerivedVerticalCRSE@Base 6.0.0
 _ZTTN5osgeo4proj3crs19DerivedProjectedCRSE@Base 6.0.0
 _ZTTN5osgeo4proj3crs20DerivedGeographicCRSE@Base 6.0.0
 _ZTTN5osgeo4proj9operation10ConversionE@Base 6.0.0
 _ZTTN5osgeo4proj9operation14TransformationE@Base 6.0.0
 _ZTTN5osgeo4proj9operation15SingleOperationE@Base 6.0.0
 _ZTTN5osgeo4proj9operation20PointMotionOperationE@Base 6.0.0
 _ZTVN5osgeo4proj2cs10TemporalCSE@Base 6.0.0
 _ZTVN5osgeo4proj2cs10VerticalCSE@Base 6.0.0
 _ZTVN5osgeo4proj2cs11CartesianCSE@Base 6.0.0
 _ZTVN5osgeo4proj2cs11SphericalCSE@Base 6.0.0
 _ZTVN5osgeo4proj2cs12ParametricCSE@Base 6.0.0
 _ZTVN5osgeo4proj2cs13EllipsoidalCSE@Base 6.0.0
 _ZTVN5osgeo4proj2cs15TemporalCountCSE@Base 6.0.0
 _ZTVN5osgeo4proj2cs16CoordinateSystemE@Base 6.0.0
 _ZTVN5osgeo4proj2cs17TemporalMeasureCSE@Base 6.0.0
 _ZTVN5osgeo4proj2cs18DateTimeTemporalCSE@Base 6.0.0
 _ZTVN5osgeo4proj2cs20CoordinateSystemAxisE@Base 6.0.0
 _ZTVN5osgeo4proj2cs8MeridianE@Base 6.0.0
 _ZTVN5osgeo4proj2cs9OrdinalCSE@Base 6.0.0
 _ZTVN5osgeo4proj2io14IWKTExportableE@Base 6.0.0
 _ZTVN5osgeo4proj2io15IJSONExportableE@Base 6.2.0
 _ZTVN5osgeo4proj2io16FactoryExceptionE@Base 6.0.0
 _ZTVN5osgeo4proj2io16ParsingExceptionE@Base 6.0.0
 _ZTVN5osgeo4proj2io19FormattingExceptionE@Base 6.0.0
 _ZTVN5osgeo4proj2io21IPROJStringExportableE@Base 6.0.0
 _ZTVN5osgeo4proj2io28NoSuchAuthorityCodeExceptionE@Base 6.0.0
 _ZTVN5osgeo4proj3crs10DerivedCRSE@Base 6.0.0
 _ZTVN5osgeo4proj3crs11CompoundCRSE@Base 6.0.0
 _ZTVN5osgeo4proj3crs11GeodeticCRSE@Base 6.0.0
 _ZTVN5osgeo4proj3crs11TemporalCRSE@Base 6.0.0
 _ZTVN5osgeo4proj3crs11VerticalCRSE@Base 6.0.0
 _ZTVN5osgeo4proj3crs12ProjectedCRSE@Base 6.0.0
 _ZTVN5osgeo4proj3crs13GeographicCRSE@Base 6.0.0
 _ZTVN5osgeo4proj3crs13ParametricCRSE@Base 6.0.0
 _ZTVN5osgeo4proj3crs14EngineeringCRSE@Base 6.0.0
 _ZTVN5osgeo4proj3crs18DerivedCRSTemplateINS1_24DerivedTemporalCRSTraitsEEE@Base 6.0.0
 _ZTVN5osgeo4proj3crs18DerivedCRSTemplateINS1_26DerivedParametricCRSTraitsEEE@Base 6.0.0
 _ZTVN5osgeo4proj3crs18DerivedCRSTemplateINS1_27DerivedEngineeringCRSTraitsEEE@Base 6.0.0
 _ZTVN5osgeo4proj3crs18DerivedGeodeticCRSE@Base 6.0.0
 _ZTVN5osgeo4proj3crs18DerivedVerticalCRSE@Base 6.0.0
 _ZTVN5osgeo4proj3crs19DerivedProjectedCRSE@Base 6.0.0
 _ZTVN5osgeo4proj3crs20DerivedGeographicCRSE@Base 6.0.0
 _ZTVN5osgeo4proj3crs3CRSE@Base 6.0.0
 _ZTVN5osgeo4proj3crs8BoundCRSE@Base 6.0.0
 _ZTVN5osgeo4proj3crs9SingleCRSE@Base 6.0.0
 _ZTVN5osgeo4proj4util10BaseObjectE@Base 6.0.0
 _ZTVN5osgeo4proj4util11IComparableE@Base 6.0.0
 _ZTVN5osgeo4proj4util25InvalidValueTypeExceptionE@Base 6.0.0
 _ZTVN5osgeo4proj4util29UnsupportedOperationExceptionE@Base 6.0.0
 _ZTVN5osgeo4proj4util9ExceptionE@Base 6.0.0
 _ZTVN5osgeo4proj5datum13DatumEnsembleE@Base 6.0.0
 _ZTVN5osgeo4proj5datum13PrimeMeridianE@Base 6.0.0
 _ZTVN5osgeo4proj5datum13TemporalDatumE@Base 6.0.0
 _ZTVN5osgeo4proj5datum15ParametricDatumE@Base 6.0.0
 _ZTVN5osgeo4proj5datum16EngineeringDatumE@Base 6.0.0
 _ZTVN5osgeo4proj5datum22GeodeticReferenceFrameE@Base 6.0.0
 _ZTVN5osgeo4proj5datum22VerticalReferenceFrameE@Base 6.0.0
 _ZTVN5osgeo4proj5datum29DynamicGeodeticReferenceFrameE@Base 6.0.0
 _ZTVN5osgeo4proj5datum29DynamicVerticalReferenceFrameE@Base 6.0.0
 _ZTVN5osgeo4proj5datum5DatumE@Base 6.0.0
 _ZTVN5osgeo4proj5datum9EllipsoidE@Base 6.0.0
 _ZTVN5osgeo4proj6common11ObjectUsageE@Base 6.0.0
 _ZTVN5osgeo4proj6common12ObjectDomainE@Base 6.0.0
 _ZTVN5osgeo4proj6common13UnitOfMeasureE@Base 6.0.0
 _ZTVN5osgeo4proj6common16IdentifiedObjectE@Base 6.0.0
 _ZTVN5osgeo4proj8metadata10IdentifierE@Base 6.0.0
 _ZTVN5osgeo4proj8metadata14TemporalExtentE@Base 6.0.0
 _ZTVN5osgeo4proj8metadata14VerticalExtentE@Base 6.0.0
 _ZTVN5osgeo4proj8metadata16GeographicExtentE@Base 6.0.0
 _ZTVN5osgeo4proj8metadata18PositionalAccuracyE@Base 6.0.0
 _ZTVN5osgeo4proj8metadata21GeographicBoundingBoxE@Base 6.0.0
 _ZTVN5osgeo4proj8metadata6ExtentE@Base 6.0.0
 _ZTVN5osgeo4proj8metadata8CitationE@Base 6.0.0
 _ZTVN5osgeo4proj9operation10ConversionE@Base 6.0.0
 _ZTVN5osgeo4proj9operation14ParameterValueE@Base 6.0.0
 _ZTVN5osgeo4proj9operation14TransformationE@Base 6.0.0
 _ZTVN5osgeo4proj9operation15OperationMethodE@Base 6.0.0
 _ZTVN5osgeo4proj9operation15SingleOperationE@Base 6.0.0
 _ZTVN5osgeo4proj9operation16InvalidOperationE@Base 6.0.0
 _ZTVN5osgeo4proj9operation18OperationParameterE@Base 6.0.0
 _ZTVN5osgeo4proj9operation19CoordinateOperationE@Base 6.0.0
 _ZTVN5osgeo4proj9operation20PointMotionOperationE@Base 6.0.0
 _ZTVN5osgeo4proj9operation21ConcatenatedOperationE@Base 6.0.0
 _ZTVN5osgeo4proj9operation21GeneralParameterValueE@Base 6.0.0
 _ZTVN5osgeo4proj9operation23OperationParameterValueE@Base 6.0.0
 _ZTVN5osgeo4proj9operation25GeneralOperationParameterE@Base 6.0.0
 _ZTVN5osgeo4proj9operation26CoordinateOperationContextE@Base 6.0.0
 _ZTVN5osgeo4proj9operation26CoordinateOperationFactoryE@Base 6.0.0
 _ZTVSt15_Sp_counted_ptrIPN5osgeo4proj2cs10VerticalCSELN9__gnu_cxx12_Lock_policyE2EE@Base 6.0.0
 _ZTVSt15_Sp_counted_ptrIPN5osgeo4proj2cs11CartesianCSELN9__gnu_cxx12_Lock_policyE2EE@Base 6.0.0
 _ZTVSt15_Sp_counted_ptrIPN5osgeo4proj2cs11SphericalCSELN9__gnu_cxx12_Lock_policyE2EE@Base 6.0.0
 _ZTVSt15_Sp_counted_ptrIPN5osgeo4proj2cs12ParametricCSELN9__gnu_cxx12_Lock_policyE2EE@Base 6.0.0
 _ZTVSt15_Sp_counted_ptrIPN5osgeo4proj2cs13EllipsoidalCSELN9__gnu_cxx12_Lock_policyE2EE@Base 6.0.0
 _ZTVSt15_Sp_counted_ptrIPN5osgeo4proj2cs15TemporalCountCSELN9__gnu_cxx12_Lock_policyE2EE@Base 6.0.0
 _ZTVSt15_Sp_counted_ptrIPN5osgeo4proj2cs17TemporalMeasureCSELN9__gnu_cxx12_Lock_policyE2EE@Base 6.0.0
 _ZTVSt15_Sp_counted_ptrIPN5osgeo4proj2cs18DateTimeTemporalCSELN9__gnu_cxx12_Lock_policyE2EE@Base 6.0.0
 _ZTVSt15_Sp_counted_ptrIPN5osgeo4proj2cs20CoordinateSystemAxisELN9__gnu_cxx12_Lock_policyE2EE@Base 6.0.0
 _ZTVSt15_Sp_counted_ptrIPN5osgeo4proj2cs8MeridianELN9__gnu_cxx12_Lock_policyE2EE@Base 6.0.0
 _ZTVSt15_Sp_counted_ptrIPN5osgeo4proj2cs9OrdinalCSELN9__gnu_cxx12_Lock_policyE2EE@Base 6.0.0
 _ZTVSt15_Sp_counted_ptrIPN5osgeo4proj2io15DatabaseContextELN9__gnu_cxx12_Lock_policyE2EE@Base 6.0.0
 _ZTVSt15_Sp_counted_ptrIPN5osgeo4proj2io16AuthorityFactoryELN9__gnu_cxx12_Lock_policyE2EE@Base 6.0.0
 _ZTVSt15_Sp_counted_ptrIPN5osgeo4proj3crs11CompoundCRSELN9__gnu_cxx12_Lock_policyE2EE@Base 6.0.0
 _ZTVSt15_Sp_counted_ptrIPN5osgeo4proj3crs11GeodeticCRSELN9__gnu_cxx12_Lock_policyE2EE@Base 6.0.0
 _ZTVSt15_Sp_counted_ptrIPN5osgeo4proj3crs11TemporalCRSELN9__gnu_cxx12_Lock_policyE2EE@Base 6.0.0
 _ZTVSt15_Sp_counted_ptrIPN5osgeo4proj3crs11VerticalCRSELN9__gnu_cxx12_Lock_policyE2EE@Base 6.0.0
 _ZTVSt15_Sp_counted_ptrIPN5osgeo4proj3crs12ProjectedCRSELN9__gnu_cxx12_Lock_policyE2EE@Base 6.0.0
 _ZTVSt15_Sp_counted_ptrIPN5osgeo4proj3crs13GeographicCRSELN9__gnu_cxx12_Lock_policyE2EE@Base 6.0.0
 _ZTVSt15_Sp_counted_ptrIPN5osgeo4proj3crs13ParametricCRSELN9__gnu_cxx12_Lock_policyE2EE@Base 6.0.0
 _ZTVSt15_Sp_counted_ptrIPN5osgeo4proj3crs14EngineeringCRSELN9__gnu_cxx12_Lock_policyE2EE@Base 6.0.0
 _ZTVSt15_Sp_counted_ptrIPN5osgeo4proj3crs18DerivedCRSTemplateINS2_24DerivedTemporalCRSTraitsEEELN9__gnu_cxx12_Lock_policyE2EE@Base 6.0.0
 _ZTVSt15_Sp_counted_ptrIPN5osgeo4proj3crs18DerivedCRSTemplateINS2_26DerivedParametricCRSTraitsEEELN9__gnu_cxx12_Lock_policyE2EE@Base 6.0.0
 _ZTVSt15_Sp_counted_ptrIPN5osgeo4proj3crs18DerivedCRSTemplateINS2_27DerivedEngineeringCRSTraitsEEELN9__gnu_cxx12_Lock_policyE2EE@Base 6.0.0
 _ZTVSt15_Sp_counted_ptrIPN5osgeo4proj3crs18DerivedGeodeticCRSELN9__gnu_cxx12_Lock_policyE2EE@Base 6.0.0
 _ZTVSt15_Sp_counted_ptrIPN5osgeo4proj3crs18DerivedVerticalCRSELN9__gnu_cxx12_Lock_policyE2EE@Base 6.0.0
 _ZTVSt15_Sp_counted_ptrIPN5osgeo4proj3crs19DerivedProjectedCRSELN9__gnu_cxx12_Lock_policyE2EE@Base 6.0.0
 _ZTVSt15_Sp_counted_ptrIPN5osgeo4proj3crs20DerivedGeographicCRSELN9__gnu_cxx12_Lock_policyE2EE@Base 6.0.0
 _ZTVSt15_Sp_counted_ptrIPN5osgeo4proj3crs8BoundCRSELN9__gnu_cxx12_Lock_policyE2EE@Base 6.0.0
 _ZTVSt15_Sp_counted_ptrIPN5osgeo4proj5datum13DatumEnsembleELN9__gnu_cxx12_Lock_policyE2EE@Base 6.0.0
 _ZTVSt15_Sp_counted_ptrIPN5osgeo4proj5datum13PrimeMeridianELN9__gnu_cxx12_Lock_policyE2EE@Base 6.0.0
 _ZTVSt15_Sp_counted_ptrIPN5osgeo4proj5datum13TemporalDatumELN9__gnu_cxx12_Lock_policyE2EE@Base 6.0.0
 _ZTVSt15_Sp_counted_ptrIPN5osgeo4proj5datum15ParametricDatumELN9__gnu_cxx12_Lock_policyE2EE@Base 6.0.0
 _ZTVSt15_Sp_counted_ptrIPN5osgeo4proj5datum16EngineeringDatumELN9__gnu_cxx12_Lock_policyE2EE@Base 6.0.0
 _ZTVSt15_Sp_counted_ptrIPN5osgeo4proj5datum22GeodeticReferenceFrameELN9__gnu_cxx12_Lock_policyE2EE@Base 6.0.0
 _ZTVSt15_Sp_counted_ptrIPN5osgeo4proj5datum22VerticalReferenceFrameELN9__gnu_cxx12_Lock_policyE2EE@Base 6.0.0
 _ZTVSt15_Sp_counted_ptrIPN5osgeo4proj5datum29DynamicGeodeticReferenceFrameELN9__gnu_cxx12_Lock_policyE2EE@Base 6.0.0
 _ZTVSt15_Sp_counted_ptrIPN5osgeo4proj5datum29DynamicVerticalReferenceFrameELN9__gnu_cxx12_Lock_policyE2EE@Base 6.0.0
 _ZTVSt15_Sp_counted_ptrIPN5osgeo4proj5datum9EllipsoidELN9__gnu_cxx12_Lock_policyE2EE@Base 6.0.0
 _ZTVSt15_Sp_counted_ptrIPN5osgeo4proj6common12ObjectDomainELN9__gnu_cxx12_Lock_policyE2EE@Base 6.0.0
 _ZTVSt15_Sp_counted_ptrIPN5osgeo4proj8metadata10IdentifierELN9__gnu_cxx12_Lock_policyE2EE@Base 6.0.0
 _ZTVSt15_Sp_counted_ptrIPN5osgeo4proj8metadata14TemporalExtentELN9__gnu_cxx12_Lock_policyE2EE@Base 6.0.0
 _ZTVSt15_Sp_counted_ptrIPN5osgeo4proj8metadata14VerticalExtentELN9__gnu_cxx12_Lock_policyE2EE@Base 6.0.0
 _ZTVSt15_Sp_counted_ptrIPN5osgeo4proj8metadata18PositionalAccuracyELN9__gnu_cxx12_Lock_policyE2EE@Base 6.0.0
 _ZTVSt15_Sp_counted_ptrIPN5osgeo4proj8metadata21GeographicBoundingBoxELN9__gnu_cxx12_Lock_policyE2EE@Base 6.0.0
 _ZTVSt15_Sp_counted_ptrIPN5osgeo4proj8metadata6ExtentELN9__gnu_cxx12_Lock_policyE2EE@Base 6.0.0
 _ZTVSt15_Sp_counted_ptrIPN5osgeo4proj9operation10ConversionELN9__gnu_cxx12_Lock_policyE2EE@Base 6.0.0
 _ZTVSt15_Sp_counted_ptrIPN5osgeo4proj9operation14ParameterValueELN9__gnu_cxx12_Lock_policyE2EE@Base 6.0.0
 _ZTVSt15_Sp_counted_ptrIPN5osgeo4proj9operation14TransformationELN9__gnu_cxx12_Lock_policyE2EE@Base 6.0.0
 _ZTVSt15_Sp_counted_ptrIPN5osgeo4proj9operation15OperationMethodELN9__gnu_cxx12_Lock_policyE2EE@Base 6.0.0
 _ZTVSt15_Sp_counted_ptrIPN5osgeo4proj9operation18OperationParameterELN9__gnu_cxx12_Lock_policyE2EE@Base 6.0.0
 _ZTVSt15_Sp_counted_ptrIPN5osgeo4proj9operation21ConcatenatedOperationELN9__gnu_cxx12_Lock_policyE2EE@Base 6.0.0
 _ZTVSt15_Sp_counted_ptrIPN5osgeo4proj9operation23OperationParameterValueELN9__gnu_cxx12_Lock_policyE2EE@Base 6.0.0
 _ZTVSt23_Sp_counted_ptr_inplaceIN5osgeo4proj6common13UnitOfMeasureESaIS3_ELN9__gnu_cxx12_Lock_policyE2EE@Base 6.0.0
 _ZThn16_N5osgeo4proj2cs10TemporalCSD0Ev@Base 6.0.0
 _ZThn16_N5osgeo4proj2cs10TemporalCSD1Ev@Base 6.0.0
 _ZThn16_N5osgeo4proj2cs10VerticalCSD0Ev@Base 6.0.0
 _ZThn16_N5osgeo4proj2cs10VerticalCSD1Ev@Base 6.0.0
 _ZThn16_N5osgeo4proj2cs11CartesianCSD0Ev@Base 6.0.0
 _ZThn16_N5osgeo4proj2cs11CartesianCSD1Ev@Base 6.0.0
 _ZThn16_N5osgeo4proj2cs11SphericalCSD0Ev@Base 6.0.0
 _ZThn16_N5osgeo4proj2cs11SphericalCSD1Ev@Base 6.0.0
 _ZThn16_N5osgeo4proj2cs12ParametricCSD0Ev@Base 6.0.0
 _ZThn16_N5osgeo4proj2cs12ParametricCSD1Ev@Base 6.0.0
 _ZThn16_N5osgeo4proj2cs13EllipsoidalCSD0Ev@Base 6.0.0
 _ZThn16_N5osgeo4proj2cs13EllipsoidalCSD1Ev@Base 6.0.0
 _ZThn16_N5osgeo4proj2cs15TemporalCountCSD0Ev@Base 6.0.0
 _ZThn16_N5osgeo4proj2cs15TemporalCountCSD1Ev@Base 6.0.0
 _ZThn16_N5osgeo4proj2cs16CoordinateSystemD0Ev@Base 6.0.0
 _ZThn16_N5osgeo4proj2cs16CoordinateSystemD1Ev@Base 6.0.0
 _ZThn16_N5osgeo4proj2cs17TemporalMeasureCSD0Ev@Base 6.0.0
 _ZThn16_N5osgeo4proj2cs17TemporalMeasureCSD1Ev@Base 6.0.0
 _ZThn16_N5osgeo4proj2cs18DateTimeTemporalCSD0Ev@Base 6.0.0
 _ZThn16_N5osgeo4proj2cs18DateTimeTemporalCSD1Ev@Base 6.0.0
 _ZThn16_N5osgeo4proj2cs20CoordinateSystemAxisD0Ev@Base 6.0.0
 _ZThn16_N5osgeo4proj2cs20CoordinateSystemAxisD1Ev@Base 6.0.0
 _ZThn16_N5osgeo4proj2cs8MeridianD0Ev@Base 6.0.0
 _ZThn16_N5osgeo4proj2cs8MeridianD1Ev@Base 6.0.0
 _ZThn16_N5osgeo4proj2cs9OrdinalCSD0Ev@Base 6.0.0
 _ZThn16_N5osgeo4proj2cs9OrdinalCSD1Ev@Base 6.0.0
 _ZThn16_N5osgeo4proj3crs11CompoundCRSD0Ev@Base 6.0.0
 _ZThn16_N5osgeo4proj3crs11CompoundCRSD1Ev@Base 6.0.0
 _ZThn16_N5osgeo4proj3crs12ProjectedCRSD0Ev@Base 6.0.0
 _ZThn16_N5osgeo4proj3crs12ProjectedCRSD1Ev@Base 6.0.0
 _ZThn16_N5osgeo4proj3crs18DerivedCRSTemplateINS1_24DerivedTemporalCRSTraitsEED0Ev@Base 6.0.0
 _ZThn16_N5osgeo4proj3crs18DerivedCRSTemplateINS1_24DerivedTemporalCRSTraitsEED1Ev@Base 6.0.0
 _ZThn16_N5osgeo4proj3crs18DerivedCRSTemplateINS1_26DerivedParametricCRSTraitsEED0Ev@Base 6.0.0
 _ZThn16_N5osgeo4proj3crs18DerivedCRSTemplateINS1_26DerivedParametricCRSTraitsEED1Ev@Base 6.0.0
 _ZThn16_N5osgeo4proj3crs18DerivedCRSTemplateINS1_27DerivedEngineeringCRSTraitsEED0Ev@Base 6.0.0
 _ZThn16_N5osgeo4proj3crs18DerivedCRSTemplateINS1_27DerivedEngineeringCRSTraitsEED1Ev@Base 6.0.0
 _ZThn16_N5osgeo4proj3crs18DerivedGeodeticCRSD0Ev@Base 6.0.0
 _ZThn16_N5osgeo4proj3crs18DerivedGeodeticCRSD1Ev@Base 6.0.0
 _ZThn16_N5osgeo4proj3crs18DerivedVerticalCRSD0Ev@Base 6.0.0
 _ZThn16_N5osgeo4proj3crs18DerivedVerticalCRSD1Ev@Base 6.0.0
 _ZThn16_N5osgeo4proj3crs3CRSD0Ev@Base 6.0.0
 _ZThn16_N5osgeo4proj3crs3CRSD1Ev@Base 6.0.0
 _ZThn16_N5osgeo4proj3crs8BoundCRSD0Ev@Base 6.0.0
 _ZThn16_N5osgeo4proj3crs8BoundCRSD1Ev@Base 6.0.0
 _ZThn16_N5osgeo4proj3crs9SingleCRSD0Ev@Base 6.0.0
 _ZThn16_N5osgeo4proj3crs9SingleCRSD1Ev@Base 6.0.0
 _ZThn16_N5osgeo4proj5datum13DatumEnsembleD0Ev@Base 6.0.0
 _ZThn16_N5osgeo4proj5datum13DatumEnsembleD1Ev@Base 6.0.0
 _ZThn16_N5osgeo4proj5datum13PrimeMeridianD0Ev@Base 6.0.0
 _ZThn16_N5osgeo4proj5datum13PrimeMeridianD1Ev@Base 6.0.0
 _ZThn16_N5osgeo4proj5datum13TemporalDatumD0Ev@Base 6.0.0
 _ZThn16_N5osgeo4proj5datum13TemporalDatumD1Ev@Base 6.0.0
 _ZThn16_N5osgeo4proj5datum15ParametricDatumD0Ev@Base 6.0.0
 _ZThn16_N5osgeo4proj5datum15ParametricDatumD1Ev@Base 6.0.0
 _ZThn16_N5osgeo4proj5datum16EngineeringDatumD0Ev@Base 6.0.0
 _ZThn16_N5osgeo4proj5datum16EngineeringDatumD1Ev@Base 6.0.0
 _ZThn16_N5osgeo4proj5datum22GeodeticReferenceFrameD0Ev@Base 6.0.0
 _ZThn16_N5osgeo4proj5datum22GeodeticReferenceFrameD1Ev@Base 6.0.0
 _ZThn16_N5osgeo4proj5datum22VerticalReferenceFrameD0Ev@Base 6.0.0
 _ZThn16_N5osgeo4proj5datum22VerticalReferenceFrameD1Ev@Base 6.0.0
 _ZThn16_N5osgeo4proj5datum29DynamicGeodeticReferenceFrameD0Ev@Base 6.0.0
 _ZThn16_N5osgeo4proj5datum29DynamicGeodeticReferenceFrameD1Ev@Base 6.0.0
 _ZThn16_N5osgeo4proj5datum29DynamicVerticalReferenceFrameD0Ev@Base 6.0.0
 _ZThn16_N5osgeo4proj5datum29DynamicVerticalReferenceFrameD1Ev@Base 6.0.0
 _ZThn16_N5osgeo4proj5datum5DatumD0Ev@Base 6.0.0
 _ZThn16_N5osgeo4proj5datum5DatumD1Ev@Base 6.0.0
 _ZThn16_N5osgeo4proj5datum9EllipsoidD0Ev@Base 6.0.0
 _ZThn16_N5osgeo4proj5datum9EllipsoidD1Ev@Base 6.0.0
 _ZThn16_N5osgeo4proj6common11ObjectUsageD0Ev@Base 6.0.0
 _ZThn16_N5osgeo4proj6common11ObjectUsageD1Ev@Base 6.0.0
 _ZThn16_N5osgeo4proj6common12ObjectDomainD0Ev@Base 6.0.0
 _ZThn16_N5osgeo4proj6common12ObjectDomainD1Ev@Base 6.0.0
 _ZThn16_N5osgeo4proj6common16IdentifiedObjectD0Ev@Base 6.0.0
 _ZThn16_N5osgeo4proj6common16IdentifiedObjectD1Ev@Base 6.0.0
 _ZThn16_N5osgeo4proj8metadata10IdentifierD0Ev@Base 6.0.0
 _ZThn16_N5osgeo4proj8metadata10IdentifierD1Ev@Base 6.0.0
 _ZThn16_N5osgeo4proj8metadata14TemporalExtentD0Ev@Base 6.0.0
 _ZThn16_N5osgeo4proj8metadata14TemporalExtentD1Ev@Base 6.0.0
 _ZThn16_N5osgeo4proj8metadata14VerticalExtentD0Ev@Base 6.0.0
 _ZThn16_N5osgeo4proj8metadata14VerticalExtentD1Ev@Base 6.0.0
 _ZThn16_N5osgeo4proj8metadata16GeographicExtentD0Ev@Base 6.0.0
 _ZThn16_N5osgeo4proj8metadata16GeographicExtentD1Ev@Base 6.0.0
 _ZThn16_N5osgeo4proj8metadata21GeographicBoundingBoxD0Ev@Base 6.0.0
 _ZThn16_N5osgeo4proj8metadata21GeographicBoundingBoxD1Ev@Base 6.0.0
 _ZThn16_N5osgeo4proj8metadata6ExtentD0Ev@Base 6.0.0
 _ZThn16_N5osgeo4proj8metadata6ExtentD1Ev@Base 6.0.0
 _ZThn16_N5osgeo4proj9operation14ParameterValueD0Ev@Base 6.0.0
 _ZThn16_N5osgeo4proj9operation14ParameterValueD1Ev@Base 6.0.0
 _ZThn16_N5osgeo4proj9operation15OperationMethodD0Ev@Base 6.0.0
 _ZThn16_N5osgeo4proj9operation15OperationMethodD1Ev@Base 6.0.0
 _ZThn16_N5osgeo4proj9operation18OperationParameterD0Ev@Base 6.0.0
 _ZThn16_N5osgeo4proj9operation18OperationParameterD1Ev@Base 6.0.0
 _ZThn16_N5osgeo4proj9operation19CoordinateOperationD0Ev@Base 6.0.0
 _ZThn16_N5osgeo4proj9operation19CoordinateOperationD1Ev@Base 6.0.0
 _ZThn16_N5osgeo4proj9operation21ConcatenatedOperationD0Ev@Base 6.0.0
 _ZThn16_N5osgeo4proj9operation21ConcatenatedOperationD1Ev@Base 6.0.0
 _ZThn16_N5osgeo4proj9operation21GeneralParameterValueD0Ev@Base 6.0.0
 _ZThn16_N5osgeo4proj9operation21GeneralParameterValueD1Ev@Base 6.0.0
 _ZThn16_N5osgeo4proj9operation23OperationParameterValueD0Ev@Base 6.0.0
 _ZThn16_N5osgeo4proj9operation23OperationParameterValueD1Ev@Base 6.0.0
 _ZThn16_N5osgeo4proj9operation25GeneralOperationParameterD0Ev@Base 6.0.0
 _ZThn16_N5osgeo4proj9operation25GeneralOperationParameterD1Ev@Base 6.0.0
 _ZThn16_NK5osgeo4proj6common11ObjectUsage15_isEquivalentToEPKNS0_4util11IComparableENS4_9CriterionERKSt10shared_ptrINS0_2io15DatabaseContextEE@Base 6.3.0
 _ZThn16_NK5osgeo4proj6common12ObjectDomain15_isEquivalentToEPKNS0_4util11IComparableENS4_9CriterionERKSt10shared_ptrINS0_2io15DatabaseContextEE@Base 6.3.0
 _ZThn24_N5osgeo4proj2cs10TemporalCSD0Ev@Base 6.0.0
 _ZThn24_N5osgeo4proj2cs10TemporalCSD1Ev@Base 6.0.0
 _ZThn24_N5osgeo4proj2cs10VerticalCSD0Ev@Base 6.0.0
 _ZThn24_N5osgeo4proj2cs10VerticalCSD1Ev@Base 6.0.0
 _ZThn24_N5osgeo4proj2cs11CartesianCSD0Ev@Base 6.0.0
 _ZThn24_N5osgeo4proj2cs11CartesianCSD1Ev@Base 6.0.0
 _ZThn24_N5osgeo4proj2cs11SphericalCSD0Ev@Base 6.0.0
 _ZThn24_N5osgeo4proj2cs11SphericalCSD1Ev@Base 6.0.0
 _ZThn24_N5osgeo4proj2cs12ParametricCSD0Ev@Base 6.0.0
 _ZThn24_N5osgeo4proj2cs12ParametricCSD1Ev@Base 6.0.0
 _ZThn24_N5osgeo4proj2cs13EllipsoidalCSD0Ev@Base 6.0.0
 _ZThn24_N5osgeo4proj2cs13EllipsoidalCSD1Ev@Base 6.0.0
 _ZThn24_N5osgeo4proj2cs15TemporalCountCSD0Ev@Base 6.0.0
 _ZThn24_N5osgeo4proj2cs15TemporalCountCSD1Ev@Base 6.0.0
 _ZThn24_N5osgeo4proj2cs16CoordinateSystemD0Ev@Base 6.0.0
 _ZThn24_N5osgeo4proj2cs16CoordinateSystemD1Ev@Base 6.0.0
 _ZThn24_N5osgeo4proj2cs17TemporalMeasureCSD0Ev@Base 6.0.0
 _ZThn24_N5osgeo4proj2cs17TemporalMeasureCSD1Ev@Base 6.0.0
 _ZThn24_N5osgeo4proj2cs18DateTimeTemporalCSD0Ev@Base 6.0.0
 _ZThn24_N5osgeo4proj2cs18DateTimeTemporalCSD1Ev@Base 6.0.0
 _ZThn24_N5osgeo4proj2cs20CoordinateSystemAxisD0Ev@Base 6.0.0
 _ZThn24_N5osgeo4proj2cs20CoordinateSystemAxisD1Ev@Base 6.0.0
 _ZThn24_N5osgeo4proj2cs8MeridianD0Ev@Base 6.0.0
 _ZThn24_N5osgeo4proj2cs8MeridianD1Ev@Base 6.0.0
 _ZThn24_N5osgeo4proj2cs9OrdinalCSD0Ev@Base 6.0.0
 _ZThn24_N5osgeo4proj2cs9OrdinalCSD1Ev@Base 6.0.0
 _ZThn24_N5osgeo4proj3crs11CompoundCRSD0Ev@Base 6.0.0
 _ZThn24_N5osgeo4proj3crs11CompoundCRSD1Ev@Base 6.0.0
 _ZThn24_N5osgeo4proj3crs20DerivedGeographicCRSD0Ev@Base 6.0.0
 _ZThn24_N5osgeo4proj3crs20DerivedGeographicCRSD1Ev@Base 6.0.0
 _ZThn24_N5osgeo4proj3crs3CRSD0Ev@Base 6.0.0
 _ZThn24_N5osgeo4proj3crs3CRSD1Ev@Base 6.0.0
 _ZThn24_N5osgeo4proj3crs8BoundCRSD0Ev@Base 6.0.0
 _ZThn24_N5osgeo4proj3crs8BoundCRSD1Ev@Base 6.0.0
 _ZThn24_N5osgeo4proj3crs9SingleCRSD0Ev@Base 6.0.0
 _ZThn24_N5osgeo4proj3crs9SingleCRSD1Ev@Base 6.0.0
 _ZThn24_N5osgeo4proj5datum13DatumEnsembleD0Ev@Base 6.0.0
 _ZThn24_N5osgeo4proj5datum13DatumEnsembleD1Ev@Base 6.0.0
 _ZThn24_N5osgeo4proj5datum13PrimeMeridianD0Ev@Base 6.0.0
 _ZThn24_N5osgeo4proj5datum13PrimeMeridianD1Ev@Base 6.0.0
 _ZThn24_N5osgeo4proj5datum13TemporalDatumD0Ev@Base 6.0.0
 _ZThn24_N5osgeo4proj5datum13TemporalDatumD1Ev@Base 6.0.0
 _ZThn24_N5osgeo4proj5datum15ParametricDatumD0Ev@Base 6.0.0
 _ZThn24_N5osgeo4proj5datum15ParametricDatumD1Ev@Base 6.0.0
 _ZThn24_N5osgeo4proj5datum16EngineeringDatumD0Ev@Base 6.0.0
 _ZThn24_N5osgeo4proj5datum16EngineeringDatumD1Ev@Base 6.0.0
 _ZThn24_N5osgeo4proj5datum22GeodeticReferenceFrameD0Ev@Base 6.0.0
 _ZThn24_N5osgeo4proj5datum22GeodeticReferenceFrameD1Ev@Base 6.0.0
 _ZThn24_N5osgeo4proj5datum22VerticalReferenceFrameD0Ev@Base 6.0.0
 _ZThn24_N5osgeo4proj5datum22VerticalReferenceFrameD1Ev@Base 6.0.0
 _ZThn24_N5osgeo4proj5datum29DynamicGeodeticReferenceFrameD0Ev@Base 6.0.0
 _ZThn24_N5osgeo4proj5datum29DynamicGeodeticReferenceFrameD1Ev@Base 6.0.0
 _ZThn24_N5osgeo4proj5datum29DynamicVerticalReferenceFrameD0Ev@Base 6.0.0
 _ZThn24_N5osgeo4proj5datum29DynamicVerticalReferenceFrameD1Ev@Base 6.0.0
 _ZThn24_N5osgeo4proj5datum5DatumD0Ev@Base 6.0.0
 _ZThn24_N5osgeo4proj5datum5DatumD1Ev@Base 6.0.0
 _ZThn24_N5osgeo4proj5datum9EllipsoidD0Ev@Base 6.0.0
 _ZThn24_N5osgeo4proj5datum9EllipsoidD1Ev@Base 6.0.0
 _ZThn24_N5osgeo4proj6common11ObjectUsageD0Ev@Base 6.0.0
 _ZThn24_N5osgeo4proj6common11ObjectUsageD1Ev@Base 6.0.0
 _ZThn24_N5osgeo4proj6common16IdentifiedObjectD0Ev@Base 6.0.0
 _ZThn24_N5osgeo4proj6common16IdentifiedObjectD1Ev@Base 6.0.0
 _ZThn24_N5osgeo4proj8metadata10IdentifierD0Ev@Base 6.0.0
 _ZThn24_N5osgeo4proj8metadata10IdentifierD1Ev@Base 6.0.0
 _ZThn24_N5osgeo4proj9operation14ParameterValueD0Ev@Base 6.0.0
 _ZThn24_N5osgeo4proj9operation14ParameterValueD1Ev@Base 6.0.0
 _ZThn24_N5osgeo4proj9operation15OperationMethodD0Ev@Base 6.0.0
 _ZThn24_N5osgeo4proj9operation15OperationMethodD1Ev@Base 6.0.0
 _ZThn24_N5osgeo4proj9operation18OperationParameterD0Ev@Base 6.0.0
 _ZThn24_N5osgeo4proj9operation18OperationParameterD1Ev@Base 6.0.0
 _ZThn24_N5osgeo4proj9operation19CoordinateOperationD0Ev@Base 6.0.0
 _ZThn24_N5osgeo4proj9operation19CoordinateOperationD1Ev@Base 6.0.0
 _ZThn24_N5osgeo4proj9operation21ConcatenatedOperationD0Ev@Base 6.0.0
 _ZThn24_N5osgeo4proj9operation21ConcatenatedOperationD1Ev@Base 6.0.0
 _ZThn24_N5osgeo4proj9operation21GeneralParameterValueD0Ev@Base 6.0.0
 _ZThn24_N5osgeo4proj9operation21GeneralParameterValueD1Ev@Base 6.0.0
 _ZThn24_N5osgeo4proj9operation23OperationParameterValueD0Ev@Base 6.0.0
 _ZThn24_N5osgeo4proj9operation23OperationParameterValueD1Ev@Base 6.0.0
 _ZThn24_N5osgeo4proj9operation25GeneralOperationParameterD0Ev@Base 6.0.0
 _ZThn24_N5osgeo4proj9operation25GeneralOperationParameterD1Ev@Base 6.0.0
 _ZThn32_N5osgeo4proj9operation21GeneralParameterValueD0Ev@Base 6.0.0
 _ZThn32_N5osgeo4proj9operation21GeneralParameterValueD1Ev@Base 6.0.0
 _ZThn32_N5osgeo4proj9operation23OperationParameterValueD0Ev@Base 6.0.0
 _ZThn32_N5osgeo4proj9operation23OperationParameterValueD1Ev@Base 6.0.0
 _ZThn40_N5osgeo4proj2cs10TemporalCSD0Ev@Base 6.0.0
 _ZThn40_N5osgeo4proj2cs10TemporalCSD1Ev@Base 6.0.0
 _ZThn40_N5osgeo4proj2cs10VerticalCSD0Ev@Base 6.0.0
 _ZThn40_N5osgeo4proj2cs10VerticalCSD1Ev@Base 6.0.0
 _ZThn40_N5osgeo4proj2cs11CartesianCSD0Ev@Base 6.0.0
 _ZThn40_N5osgeo4proj2cs11CartesianCSD1Ev@Base 6.0.0
 _ZThn40_N5osgeo4proj2cs11SphericalCSD0Ev@Base 6.0.0
 _ZThn40_N5osgeo4proj2cs11SphericalCSD1Ev@Base 6.0.0
 _ZThn40_N5osgeo4proj2cs12ParametricCSD0Ev@Base 6.0.0
 _ZThn40_N5osgeo4proj2cs12ParametricCSD1Ev@Base 6.0.0
 _ZThn40_N5osgeo4proj2cs13EllipsoidalCSD0Ev@Base 6.0.0
 _ZThn40_N5osgeo4proj2cs13EllipsoidalCSD1Ev@Base 6.0.0
 _ZThn40_N5osgeo4proj2cs15TemporalCountCSD0Ev@Base 6.0.0
 _ZThn40_N5osgeo4proj2cs15TemporalCountCSD1Ev@Base 6.0.0
 _ZThn40_N5osgeo4proj2cs16CoordinateSystemD0Ev@Base 6.0.0
 _ZThn40_N5osgeo4proj2cs16CoordinateSystemD1Ev@Base 6.0.0
 _ZThn40_N5osgeo4proj2cs17TemporalMeasureCSD0Ev@Base 6.0.0
 _ZThn40_N5osgeo4proj2cs17TemporalMeasureCSD1Ev@Base 6.0.0
 _ZThn40_N5osgeo4proj2cs18DateTimeTemporalCSD0Ev@Base 6.0.0
 _ZThn40_N5osgeo4proj2cs18DateTimeTemporalCSD1Ev@Base 6.0.0
 _ZThn40_N5osgeo4proj2cs20CoordinateSystemAxisD0Ev@Base 6.0.0
 _ZThn40_N5osgeo4proj2cs20CoordinateSystemAxisD1Ev@Base 6.0.0
 _ZThn40_N5osgeo4proj2cs9OrdinalCSD0Ev@Base 6.0.0
 _ZThn40_N5osgeo4proj2cs9OrdinalCSD1Ev@Base 6.0.0
 _ZThn40_N5osgeo4proj5datum13DatumEnsembleD0Ev@Base 6.0.0
 _ZThn40_N5osgeo4proj5datum13DatumEnsembleD1Ev@Base 6.0.0
 _ZThn40_N5osgeo4proj5datum13PrimeMeridianD0Ev@Base 6.0.0
 _ZThn40_N5osgeo4proj5datum13PrimeMeridianD1Ev@Base 6.0.0
 _ZThn40_N5osgeo4proj5datum9EllipsoidD0Ev@Base 6.0.0
 _ZThn40_N5osgeo4proj5datum9EllipsoidD1Ev@Base 6.0.0
 _ZThn40_N5osgeo4proj9operation15OperationMethodD0Ev@Base 6.0.0
 _ZThn40_N5osgeo4proj9operation15OperationMethodD1Ev@Base 6.0.0
 _ZThn48_N5osgeo4proj3crs11CompoundCRSD0Ev@Base 6.0.0
 _ZThn48_N5osgeo4proj3crs11CompoundCRSD1Ev@Base 6.0.0
 _ZThn48_N5osgeo4proj3crs3CRSD0Ev@Base 6.0.0
 _ZThn48_N5osgeo4proj3crs3CRSD1Ev@Base 6.0.0
 _ZThn48_N5osgeo4proj3crs8BoundCRSD0Ev@Base 6.0.0
 _ZThn48_N5osgeo4proj3crs8BoundCRSD1Ev@Base 6.0.0
 _ZThn48_N5osgeo4proj3crs9SingleCRSD0Ev@Base 6.0.0
 _ZThn48_N5osgeo4proj3crs9SingleCRSD1Ev@Base 6.0.0
 _ZThn48_N5osgeo4proj5datum13PrimeMeridianD0Ev@Base 6.0.0
 _ZThn48_N5osgeo4proj5datum13PrimeMeridianD1Ev@Base 6.0.0
 _ZThn48_N5osgeo4proj5datum13TemporalDatumD0Ev@Base 6.0.0
 _ZThn48_N5osgeo4proj5datum13TemporalDatumD1Ev@Base 6.0.0
 _ZThn48_N5osgeo4proj5datum15ParametricDatumD0Ev@Base 6.0.0
 _ZThn48_N5osgeo4proj5datum15ParametricDatumD1Ev@Base 6.0.0
 _ZThn48_N5osgeo4proj5datum16EngineeringDatumD0Ev@Base 6.0.0
 _ZThn48_N5osgeo4proj5datum16EngineeringDatumD1Ev@Base 6.0.0
 _ZThn48_N5osgeo4proj5datum22GeodeticReferenceFrameD0Ev@Base 6.0.0
 _ZThn48_N5osgeo4proj5datum22GeodeticReferenceFrameD1Ev@Base 6.0.0
 _ZThn48_N5osgeo4proj5datum22VerticalReferenceFrameD0Ev@Base 6.0.0
 _ZThn48_N5osgeo4proj5datum22VerticalReferenceFrameD1Ev@Base 6.0.0
 _ZThn48_N5osgeo4proj5datum29DynamicGeodeticReferenceFrameD0Ev@Base 6.0.0
 _ZThn48_N5osgeo4proj5datum29DynamicGeodeticReferenceFrameD1Ev@Base 6.0.0
 _ZThn48_N5osgeo4proj5datum29DynamicVerticalReferenceFrameD0Ev@Base 6.0.0
 _ZThn48_N5osgeo4proj5datum29DynamicVerticalReferenceFrameD1Ev@Base 6.0.0
 _ZThn48_N5osgeo4proj5datum5DatumD0Ev@Base 6.0.0
 _ZThn48_N5osgeo4proj5datum5DatumD1Ev@Base 6.0.0
 _ZThn48_N5osgeo4proj5datum9EllipsoidD0Ev@Base 6.0.0
 _ZThn48_N5osgeo4proj5datum9EllipsoidD1Ev@Base 6.0.0
 _ZThn48_N5osgeo4proj9operation19CoordinateOperationD0Ev@Base 6.0.0
 _ZThn48_N5osgeo4proj9operation19CoordinateOperationD1Ev@Base 6.0.0
 _ZThn48_N5osgeo4proj9operation21ConcatenatedOperationD0Ev@Base 6.0.0
 _ZThn48_N5osgeo4proj9operation21ConcatenatedOperationD1Ev@Base 6.0.0
 _ZThn56_N5osgeo4proj9operation19CoordinateOperationD0Ev@Base 6.0.0
 _ZThn56_N5osgeo4proj9operation19CoordinateOperationD1Ev@Base 6.0.0
 _ZThn56_N5osgeo4proj9operation21ConcatenatedOperationD0Ev@Base 6.0.0
 _ZThn56_N5osgeo4proj9operation21ConcatenatedOperationD1Ev@Base 6.0.0
 _ZThn64_N5osgeo4proj3crs11CompoundCRSD0Ev@Base 6.0.0
 _ZThn64_N5osgeo4proj3crs11CompoundCRSD1Ev@Base 6.0.0
 _ZThn64_N5osgeo4proj3crs8BoundCRSD0Ev@Base 6.0.0
 _ZThn64_N5osgeo4proj3crs8BoundCRSD1Ev@Base 6.0.0
 _ZTv0_n24_N5osgeo4proj3crs10DerivedCRSD0Ev@Base 6.0.0
 _ZTv0_n24_N5osgeo4proj3crs10DerivedCRSD1Ev@Base 6.0.0
 _ZTv0_n24_N5osgeo4proj3crs11GeodeticCRSD0Ev@Base 6.0.0
 _ZTv0_n24_N5osgeo4proj3crs11GeodeticCRSD1Ev@Base 6.0.0
 _ZTv0_n24_N5osgeo4proj3crs11TemporalCRSD0Ev@Base 6.0.0
 _ZTv0_n24_N5osgeo4proj3crs11TemporalCRSD1Ev@Base 6.0.0
 _ZTv0_n24_N5osgeo4proj3crs11VerticalCRSD0Ev@Base 6.0.0
 _ZTv0_n24_N5osgeo4proj3crs11VerticalCRSD1Ev@Base 6.0.0
 _ZTv0_n24_N5osgeo4proj3crs12ProjectedCRSD0Ev@Base 6.0.0
 _ZTv0_n24_N5osgeo4proj3crs12ProjectedCRSD1Ev@Base 6.0.0
 _ZTv0_n24_N5osgeo4proj3crs13GeographicCRSD0Ev@Base 6.0.0
 _ZTv0_n24_N5osgeo4proj3crs13GeographicCRSD1Ev@Base 6.0.0
 _ZTv0_n24_N5osgeo4proj3crs13ParametricCRSD0Ev@Base 6.0.0
 _ZTv0_n24_N5osgeo4proj3crs13ParametricCRSD1Ev@Base 6.0.0
 _ZTv0_n24_N5osgeo4proj3crs14EngineeringCRSD0Ev@Base 6.0.0
 _ZTv0_n24_N5osgeo4proj3crs14EngineeringCRSD1Ev@Base 6.0.0
 _ZTv0_n24_N5osgeo4proj3crs18DerivedCRSTemplateINS1_24DerivedTemporalCRSTraitsEED0Ev@Base 6.0.0
 _ZTv0_n24_N5osgeo4proj3crs18DerivedCRSTemplateINS1_24DerivedTemporalCRSTraitsEED1Ev@Base 6.0.0
 _ZTv0_n24_N5osgeo4proj3crs18DerivedCRSTemplateINS1_26DerivedParametricCRSTraitsEED0Ev@Base 6.0.0
 _ZTv0_n24_N5osgeo4proj3crs18DerivedCRSTemplateINS1_26DerivedParametricCRSTraitsEED1Ev@Base 6.0.0
 _ZTv0_n24_N5osgeo4proj3crs18DerivedCRSTemplateINS1_27DerivedEngineeringCRSTraitsEED0Ev@Base 6.0.0
 _ZTv0_n24_N5osgeo4proj3crs18DerivedCRSTemplateINS1_27DerivedEngineeringCRSTraitsEED1Ev@Base 6.0.0
 _ZTv0_n24_N5osgeo4proj3crs18DerivedGeodeticCRSD0Ev@Base 6.0.0
 _ZTv0_n24_N5osgeo4proj3crs18DerivedGeodeticCRSD1Ev@Base 6.0.0
 _ZTv0_n24_N5osgeo4proj3crs18DerivedVerticalCRSD0Ev@Base 6.0.0
 _ZTv0_n24_N5osgeo4proj3crs18DerivedVerticalCRSD1Ev@Base 6.0.0
 _ZTv0_n24_N5osgeo4proj3crs19DerivedProjectedCRSD0Ev@Base 6.0.0
 _ZTv0_n24_N5osgeo4proj3crs19DerivedProjectedCRSD1Ev@Base 6.0.0
 _ZTv0_n24_N5osgeo4proj3crs20DerivedGeographicCRSD0Ev@Base 6.0.0
 _ZTv0_n24_N5osgeo4proj3crs20DerivedGeographicCRSD1Ev@Base 6.0.0
 _ZTv0_n24_N5osgeo4proj9operation10ConversionD0Ev@Base 6.0.0
 _ZTv0_n24_N5osgeo4proj9operation10ConversionD1Ev@Base 6.0.0
 _ZTv0_n24_N5osgeo4proj9operation14TransformationD0Ev@Base 6.0.0
 _ZTv0_n24_N5osgeo4proj9operation14TransformationD1Ev@Base 6.0.0
 _ZTv0_n24_N5osgeo4proj9operation15SingleOperationD0Ev@Base 6.0.0
 _ZTv0_n24_N5osgeo4proj9operation15SingleOperationD1Ev@Base 6.0.0
 _ZTv0_n24_N5osgeo4proj9operation20PointMotionOperationD0Ev@Base 6.0.0
 _ZTv0_n24_N5osgeo4proj9operation20PointMotionOperationD1Ev@Base 6.0.0
 _ZTv0_n56_NK5osgeo4proj9operation10Conversion7inverseEv@Base 6.0.0
 _ZTv0_n56_NK5osgeo4proj9operation14Transformation7inverseEv@Base 6.0.0
 _ZTv0_n64_NK5osgeo4proj9operation15SingleOperation11gridsNeededERKSt10shared_ptrINS0_2io15DatabaseContextEE@Base 6.0.0
 _ZTvn16_n24_N5osgeo4proj3crs10DerivedCRSD0Ev@Base 6.0.0
 _ZTvn16_n24_N5osgeo4proj3crs10DerivedCRSD1Ev@Base 6.0.0
 _ZTvn16_n24_N5osgeo4proj3crs11GeodeticCRSD0Ev@Base 6.0.0
 _ZTvn16_n24_N5osgeo4proj3crs11GeodeticCRSD1Ev@Base 6.0.0
 _ZTvn16_n24_N5osgeo4proj3crs11TemporalCRSD0Ev@Base 6.0.0
 _ZTvn16_n24_N5osgeo4proj3crs11TemporalCRSD1Ev@Base 6.0.0
 _ZTvn16_n24_N5osgeo4proj3crs11VerticalCRSD0Ev@Base 6.0.0
 _ZTvn16_n24_N5osgeo4proj3crs11VerticalCRSD1Ev@Base 6.0.0
 _ZTvn16_n24_N5osgeo4proj3crs12ProjectedCRSD0Ev@Base 6.0.0
 _ZTvn16_n24_N5osgeo4proj3crs12ProjectedCRSD1Ev@Base 6.0.0
 _ZTvn16_n24_N5osgeo4proj3crs13GeographicCRSD0Ev@Base 6.0.0
 _ZTvn16_n24_N5osgeo4proj3crs13GeographicCRSD1Ev@Base 6.0.0
 _ZTvn16_n24_N5osgeo4proj3crs13ParametricCRSD0Ev@Base 6.0.0
 _ZTvn16_n24_N5osgeo4proj3crs13ParametricCRSD1Ev@Base 6.0.0
 _ZTvn16_n24_N5osgeo4proj3crs14EngineeringCRSD0Ev@Base 6.0.0
 _ZTvn16_n24_N5osgeo4proj3crs14EngineeringCRSD1Ev@Base 6.0.0
 _ZTvn16_n24_N5osgeo4proj3crs18DerivedCRSTemplateINS1_24DerivedTemporalCRSTraitsEED0Ev@Base 6.0.0
 _ZTvn16_n24_N5osgeo4proj3crs18DerivedCRSTemplateINS1_24DerivedTemporalCRSTraitsEED1Ev@Base 6.0.0
 _ZTvn16_n24_N5osgeo4proj3crs18DerivedCRSTemplateINS1_26DerivedParametricCRSTraitsEED0Ev@Base 6.0.0
 _ZTvn16_n24_N5osgeo4proj3crs18DerivedCRSTemplateINS1_26DerivedParametricCRSTraitsEED1Ev@Base 6.0.0
 _ZTvn16_n24_N5osgeo4proj3crs18DerivedCRSTemplateINS1_27DerivedEngineeringCRSTraitsEED0Ev@Base 6.0.0
 _ZTvn16_n24_N5osgeo4proj3crs18DerivedCRSTemplateINS1_27DerivedEngineeringCRSTraitsEED1Ev@Base 6.0.0
 _ZTvn16_n24_N5osgeo4proj3crs18DerivedGeodeticCRSD0Ev@Base 6.0.0
 _ZTvn16_n24_N5osgeo4proj3crs18DerivedGeodeticCRSD1Ev@Base 6.0.0
 _ZTvn16_n24_N5osgeo4proj3crs18DerivedVerticalCRSD0Ev@Base 6.0.0
 _ZTvn16_n24_N5osgeo4proj3crs18DerivedVerticalCRSD1Ev@Base 6.0.0
 _ZTvn16_n24_N5osgeo4proj3crs19DerivedProjectedCRSD0Ev@Base 6.0.0
 _ZTvn16_n24_N5osgeo4proj3crs19DerivedProjectedCRSD1Ev@Base 6.0.0
 _ZTvn16_n24_N5osgeo4proj3crs20DerivedGeographicCRSD0Ev@Base 6.0.0
 _ZTvn16_n24_N5osgeo4proj3crs20DerivedGeographicCRSD1Ev@Base 6.0.0
 _ZTvn16_n24_N5osgeo4proj9operation10ConversionD0Ev@Base 6.0.0
 _ZTvn16_n24_N5osgeo4proj9operation10ConversionD1Ev@Base 6.0.0
 _ZTvn16_n24_N5osgeo4proj9operation14TransformationD0Ev@Base 6.0.0
 _ZTvn16_n24_N5osgeo4proj9operation14TransformationD1Ev@Base 6.0.0
 _ZTvn16_n24_N5osgeo4proj9operation15SingleOperationD0Ev@Base 6.0.0
 _ZTvn16_n24_N5osgeo4proj9operation15SingleOperationD1Ev@Base 6.0.0
 _ZTvn16_n24_N5osgeo4proj9operation20PointMotionOperationD0Ev@Base 6.0.0
 _ZTvn16_n24_N5osgeo4proj9operation20PointMotionOperationD1Ev@Base 6.0.0
 _ZTvn24_n24_N5osgeo4proj3crs10DerivedCRSD0Ev@Base 6.0.0
 _ZTvn24_n24_N5osgeo4proj3crs10DerivedCRSD1Ev@Base 6.0.0
 _ZTvn24_n24_N5osgeo4proj3crs11GeodeticCRSD0Ev@Base 6.0.0
 _ZTvn24_n24_N5osgeo4proj3crs11GeodeticCRSD1Ev@Base 6.0.0
 _ZTvn24_n24_N5osgeo4proj3crs11TemporalCRSD0Ev@Base 6.0.0
 _ZTvn24_n24_N5osgeo4proj3crs11TemporalCRSD1Ev@Base 6.0.0
 _ZTvn24_n24_N5osgeo4proj3crs11VerticalCRSD0Ev@Base 6.0.0
 _ZTvn24_n24_N5osgeo4proj3crs11VerticalCRSD1Ev@Base 6.0.0
 _ZTvn24_n24_N5osgeo4proj3crs12ProjectedCRSD0Ev@Base 6.0.0
 _ZTvn24_n24_N5osgeo4proj3crs12ProjectedCRSD1Ev@Base 6.0.0
 _ZTvn24_n24_N5osgeo4proj3crs13GeographicCRSD0Ev@Base 6.0.0
 _ZTvn24_n24_N5osgeo4proj3crs13GeographicCRSD1Ev@Base 6.0.0
 _ZTvn24_n24_N5osgeo4proj3crs13ParametricCRSD0Ev@Base 6.0.0
 _ZTvn24_n24_N5osgeo4proj3crs13ParametricCRSD1Ev@Base 6.0.0
 _ZTvn24_n24_N5osgeo4proj3crs14EngineeringCRSD0Ev@Base 6.0.0
 _ZTvn24_n24_N5osgeo4proj3crs14EngineeringCRSD1Ev@Base 6.0.0
 _ZTvn24_n24_N5osgeo4proj3crs18DerivedCRSTemplateINS1_24DerivedTemporalCRSTraitsEED0Ev@Base 6.0.0
 _ZTvn24_n24_N5osgeo4proj3crs18DerivedCRSTemplateINS1_24DerivedTemporalCRSTraitsEED1Ev@Base 6.0.0
 _ZTvn24_n24_N5osgeo4proj3crs18DerivedCRSTemplateINS1_26DerivedParametricCRSTraitsEED0Ev@Base 6.0.0
 _ZTvn24_n24_N5osgeo4proj3crs18DerivedCRSTemplateINS1_26DerivedParametricCRSTraitsEED1Ev@Base 6.0.0
 _ZTvn24_n24_N5osgeo4proj3crs18DerivedCRSTemplateINS1_27DerivedEngineeringCRSTraitsEED0Ev@Base 6.0.0
 _ZTvn24_n24_N5osgeo4proj3crs18DerivedCRSTemplateINS1_27DerivedEngineeringCRSTraitsEED1Ev@Base 6.0.0
 _ZTvn24_n24_N5osgeo4proj3crs18DerivedGeodeticCRSD0Ev@Base 6.0.0
 _ZTvn24_n24_N5osgeo4proj3crs18DerivedGeodeticCRSD1Ev@Base 6.0.0
 _ZTvn24_n24_N5osgeo4proj3crs18DerivedVerticalCRSD0Ev@Base 6.0.0
 _ZTvn24_n24_N5osgeo4proj3crs18DerivedVerticalCRSD1Ev@Base 6.0.0
 _ZTvn24_n24_N5osgeo4proj3crs19DerivedProjectedCRSD0Ev@Base 6.0.0
 _ZTvn24_n24_N5osgeo4proj3crs19DerivedProjectedCRSD1Ev@Base 6.0.0
 _ZTvn24_n24_N5osgeo4proj3crs20DerivedGeographicCRSD0Ev@Base 6.0.0
 _ZTvn24_n24_N5osgeo4proj3crs20DerivedGeographicCRSD1Ev@Base 6.0.0
 _ZTvn24_n24_N5osgeo4proj9operation10ConversionD0Ev@Base 6.0.0
 _ZTvn24_n24_N5osgeo4proj9operation10ConversionD1Ev@Base 6.0.0
 _ZTvn24_n24_N5osgeo4proj9operation14TransformationD0Ev@Base 6.0.0
 _ZTvn24_n24_N5osgeo4proj9operation14TransformationD1Ev@Base 6.0.0
 _ZTvn24_n24_N5osgeo4proj9operation15SingleOperationD0Ev@Base 6.0.0
 _ZTvn24_n24_N5osgeo4proj9operation15SingleOperationD1Ev@Base 6.0.0
 _ZTvn24_n24_N5osgeo4proj9operation20PointMotionOperationD0Ev@Base 6.0.0
 _ZTvn24_n24_N5osgeo4proj9operation20PointMotionOperationD1Ev@Base 6.0.0
 _ZTvn24_n48_NK5osgeo4proj3crs18DerivedGeodeticCRS12_exportToWKTEPNS0_2io12WKTFormatterE@Base 6.0.0
 _ZTvn48_n24_N5osgeo4proj3crs10DerivedCRSD0Ev@Base 6.0.0
 _ZTvn48_n24_N5osgeo4proj3crs10DerivedCRSD1Ev@Base 6.0.0
 _ZTvn48_n24_N5osgeo4proj3crs11GeodeticCRSD0Ev@Base 6.0.0
 _ZTvn48_n24_N5osgeo4proj3crs11GeodeticCRSD1Ev@Base 6.0.0
 _ZTvn48_n24_N5osgeo4proj3crs11TemporalCRSD0Ev@Base 6.0.0
 _ZTvn48_n24_N5osgeo4proj3crs11TemporalCRSD1Ev@Base 6.0.0
 _ZTvn48_n24_N5osgeo4proj3crs11VerticalCRSD0Ev@Base 6.0.0
 _ZTvn48_n24_N5osgeo4proj3crs11VerticalCRSD1Ev@Base 6.0.0
 _ZTvn48_n24_N5osgeo4proj3crs12ProjectedCRSD0Ev@Base 6.0.0
 _ZTvn48_n24_N5osgeo4proj3crs12ProjectedCRSD1Ev@Base 6.0.0
 _ZTvn48_n24_N5osgeo4proj3crs13GeographicCRSD0Ev@Base 6.0.0
 _ZTvn48_n24_N5osgeo4proj3crs13GeographicCRSD1Ev@Base 6.0.0
 _ZTvn48_n24_N5osgeo4proj3crs13ParametricCRSD0Ev@Base 6.0.0
 _ZTvn48_n24_N5osgeo4proj3crs13ParametricCRSD1Ev@Base 6.0.0
 _ZTvn48_n24_N5osgeo4proj3crs14EngineeringCRSD0Ev@Base 6.0.0
 _ZTvn48_n24_N5osgeo4proj3crs14EngineeringCRSD1Ev@Base 6.0.0
 _ZTvn48_n24_N5osgeo4proj3crs18DerivedCRSTemplateINS1_24DerivedTemporalCRSTraitsEED0Ev@Base 6.0.0
 _ZTvn48_n24_N5osgeo4proj3crs18DerivedCRSTemplateINS1_24DerivedTemporalCRSTraitsEED1Ev@Base 6.0.0
 _ZTvn48_n24_N5osgeo4proj3crs18DerivedCRSTemplateINS1_26DerivedParametricCRSTraitsEED0Ev@Base 6.0.0
 _ZTvn48_n24_N5osgeo4proj3crs18DerivedCRSTemplateINS1_26DerivedParametricCRSTraitsEED1Ev@Base 6.0.0
 _ZTvn48_n24_N5osgeo4proj3crs18DerivedCRSTemplateINS1_27DerivedEngineeringCRSTraitsEED0Ev@Base 6.0.0
 _ZTvn48_n24_N5osgeo4proj3crs18DerivedCRSTemplateINS1_27DerivedEngineeringCRSTraitsEED1Ev@Base 6.0.0
 _ZTvn48_n24_N5osgeo4proj3crs18DerivedGeodeticCRSD0Ev@Base 6.0.0
 _ZTvn48_n24_N5osgeo4proj3crs18DerivedGeodeticCRSD1Ev@Base 6.0.0
 _ZTvn48_n24_N5osgeo4proj3crs18DerivedVerticalCRSD0Ev@Base 6.0.0
 _ZTvn48_n24_N5osgeo4proj3crs18DerivedVerticalCRSD1Ev@Base 6.0.0
 _ZTvn48_n24_N5osgeo4proj3crs19DerivedProjectedCRSD0Ev@Base 6.0.0
 _ZTvn48_n24_N5osgeo4proj3crs19DerivedProjectedCRSD1Ev@Base 6.0.0
 _ZTvn48_n24_N5osgeo4proj3crs20DerivedGeographicCRSD0Ev@Base 6.0.0
 _ZTvn48_n24_N5osgeo4proj3crs20DerivedGeographicCRSD1Ev@Base 6.0.0
 _ZTvn48_n24_N5osgeo4proj9operation10ConversionD0Ev@Base 6.0.0
 _ZTvn48_n24_N5osgeo4proj9operation10ConversionD1Ev@Base 6.0.0
 _ZTvn48_n24_N5osgeo4proj9operation14TransformationD0Ev@Base 6.0.0
 _ZTvn48_n24_N5osgeo4proj9operation14TransformationD1Ev@Base 6.0.0
 _ZTvn48_n24_N5osgeo4proj9operation15SingleOperationD0Ev@Base 6.0.0
 _ZTvn48_n24_N5osgeo4proj9operation15SingleOperationD1Ev@Base 6.0.0
 _ZTvn48_n24_N5osgeo4proj9operation20PointMotionOperationD0Ev@Base 6.0.0
 _ZTvn48_n24_N5osgeo4proj9operation20PointMotionOperationD1Ev@Base 6.0.0
 _ZTvn56_n24_N5osgeo4proj9operation10ConversionD0Ev@Base 6.0.0
 _ZTvn56_n24_N5osgeo4proj9operation10ConversionD1Ev@Base 6.0.0
 _ZTvn56_n24_N5osgeo4proj9operation14TransformationD0Ev@Base 6.0.0
 _ZTvn56_n24_N5osgeo4proj9operation14TransformationD1Ev@Base 6.0.0
 _ZTvn56_n24_N5osgeo4proj9operation15SingleOperationD0Ev@Base 6.0.0
 _ZTvn56_n24_N5osgeo4proj9operation15SingleOperationD1Ev@Base 6.0.0
 _ZTvn56_n24_N5osgeo4proj9operation20PointMotionOperationD0Ev@Base 6.0.0
 _ZTvn56_n24_N5osgeo4proj9operation20PointMotionOperationD1Ev@Base 6.0.0
 _ZZNSt19_Sp_make_shared_tag5_S_tiEvE5__tag@Base 6.0.0
 geod_direct@Base 4.9.0
 geod_directline@Base 4.9.3
 geod_gendirect@Base 4.9.0
 geod_gendirectline@Base 4.9.3
 geod_geninverse@Base 4.9.0
 geod_genposition@Base 4.9.0
 geod_gensetdistance@Base 4.9.3
 geod_init@Base 4.9.0
 geod_inverse@Base 4.9.0
 geod_inverseline@Base 4.9.3
 geod_lineinit@Base 4.9.0
 geod_polygon_addedge@Base 4.9.0
 geod_polygon_addpoint@Base 4.9.0
 geod_polygon_clear@Base 4.9.3
 geod_polygon_compute@Base 4.9.0
 geod_polygon_init@Base 4.9.0
 geod_polygon_testedge@Base 4.9.0
 geod_polygon_testpoint@Base 4.9.0
 geod_polygonarea@Base 4.9.0
 geod_position@Base 4.9.0
 geod_setdistance@Base 4.9.3
 pj_acquire_lock@Base 4.8.0
 pj_apply_gridshift@Base 4.8.0
 pj_calloc@Base 4.9.3
 pj_cleanup_lock@Base 4.8.0
 pj_clear_initcache@Base 4.8.0
 pj_compare_datums@Base 4.8.0
 pj_ctx_alloc@Base 4.8.0
 pj_ctx_fclose@Base 4.9.0
 pj_ctx_fgets@Base 4.9.0
 pj_ctx_fopen@Base 4.9.0
 pj_ctx_fread@Base 4.9.0
 pj_ctx_free@Base 4.8.0
 pj_ctx_fseek@Base 4.9.0
 pj_ctx_ftell@Base 4.9.0
 pj_ctx_get_app_data@Base 4.8.0
 pj_ctx_get_errno@Base 4.8.0
 pj_ctx_get_fileapi@Base 4.9.0
 pj_ctx_set_app_data@Base 4.8.0
 pj_ctx_set_debug@Base 4.8.0
 pj_ctx_set_errno@Base 4.8.0
 pj_ctx_set_fileapi@Base 4.9.0
 pj_ctx_set_logger@Base 4.8.0
 pj_dalloc@Base 4.8.0
 pj_datum_transform@Base 4.8.0
 pj_dealloc@Base 4.9.3
 pj_deallocate_grids@Base 4.8.0
 pj_errno@Base 4.8.0
 pj_find_file@Base 5.0.0
 pj_free@Base 4.8.0
 pj_fwd3d@Base 4.9.3
 pj_fwd@Base 4.8.0
 pj_geocentric_to_geodetic@Base 4.8.0
 pj_geodetic_to_geocentric@Base 4.8.0
 pj_get_ctx@Base 4.8.0
 pj_get_def@Base 4.8.0
 pj_get_default_ctx@Base 4.8.0
 pj_get_default_fileapi@Base 4.9.0
 pj_get_errno_ref@Base 4.8.0
 pj_get_release@Base 4.8.0
 pj_get_spheroid_defn@Base 4.8.0
 pj_has_inverse@Base 5.0.0
 pj_init@Base 4.8.0
 pj_init_ctx@Base 4.8.0
 pj_init_plus@Base 4.8.0
 pj_init_plus_ctx@Base 4.8.0
 pj_inv3d@Base 4.9.3
 pj_inv@Base 4.8.0
 pj_is_geocent@Base 4.8.0
 pj_is_latlong@Base 4.8.0
 pj_latlong_from_proj@Base 4.8.0
 pj_log@Base 4.8.0
 pj_malloc@Base 4.8.0
 pj_open_lib@Base 4.8.0
 pj_pr_list@Base 4.8.0
 pj_release@Base 4.8.0
 pj_release_lock@Base 4.8.0
 pj_set_ctx@Base 4.8.0
 pj_set_finder@Base 4.8.0
 pj_set_searchpath@Base 4.8.0
 pj_stderr_logger@Base 4.8.0
 pj_strdup@Base 5.0.0
 pj_strerrno@Base 4.8.0
 pj_transform@Base 4.8.0
 proj_alter_id@Base 6.0.0
 proj_alter_name@Base 6.0.0
 proj_angular_input@Base 5.0.0
 proj_angular_output@Base 5.0.0
 proj_area_create@Base 6.0.0
 proj_area_destroy@Base 6.0.0
 proj_area_set_bbox@Base 6.0.0
 proj_as_proj_string@Base 6.0.0
 proj_as_projjson@Base 6.2.0
 proj_as_wkt@Base 6.0.0
 proj_assign_context@Base 6.0.0
 proj_cleanup@Base 6.2.0
 proj_clone@Base 6.0.0
 proj_concatoperation_get_step@Base 6.2.0
 proj_concatoperation_get_step_count@Base 6.2.0
 proj_context_create@Base 5.0.0
 proj_context_destroy@Base 5.0.0
 proj_context_errno@Base 5.0.0
 proj_context_get_database_metadata@Base 6.0.0
 proj_context_get_database_path@Base 6.0.0
 proj_context_get_use_proj4_init_rules@Base 6.0.0
 proj_context_guess_wkt_dialect@Base 6.0.0
 proj_context_set_autoclose_database@Base 6.2.0
 proj_context_set_database_path@Base 6.0.0
 proj_context_set_file_finder@Base 6.0.0
 proj_context_set_search_paths@Base 6.0.0
 proj_context_use_proj4_init_rules@Base 6.0.0
 proj_convert_conversion_to_other_method@Base 6.0.0
 proj_coord@Base 5.0.0
 proj_coordoperation_create_inverse@Base 6.3.0
 proj_coordoperation_get_accuracy@Base 6.0.0
 proj_coordoperation_get_grid_used@Base 6.0.0
 proj_coordoperation_get_grid_used_count@Base 6.0.0
 proj_coordoperation_get_method_info@Base 6.0.0
 proj_coordoperation_get_param@Base 6.0.0
 proj_coordoperation_get_param_count@Base 6.0.0
 proj_coordoperation_get_param_index@Base 6.0.0
 proj_coordoperation_get_towgs84_values@Base 6.0.0
 proj_coordoperation_has_ballpark_transformation@Base 6.0.0
 proj_coordoperation_is_instantiable@Base 6.0.0
 proj_create@Base 5.0.0
 proj_create_argv@Base 5.0.0
 proj_create_cartesian_2D_cs@Base 6.0.0
 proj_create_compound_crs@Base 6.0.0
 proj_create_conversion@Base 6.0.0
 proj_create_conversion_albers_equal_area@Base 6.0.0
 proj_create_conversion_american_polyconic@Base 6.0.0
 proj_create_conversion_azimuthal_equidistant@Base 6.0.0
 proj_create_conversion_bonne@Base 6.0.0
 proj_create_conversion_cassini_soldner@Base 6.0.0
 proj_create_conversion_eckert_i@Base 6.0.0
 proj_create_conversion_eckert_ii@Base 6.0.0
 proj_create_conversion_eckert_iii@Base 6.0.0
 proj_create_conversion_eckert_iv@Base 6.0.0
 proj_create_conversion_eckert_v@Base 6.0.0
 proj_create_conversion_eckert_vi@Base 6.0.0
 proj_create_conversion_equal_earth@Base 6.0.0
 proj_create_conversion_equidistant_conic@Base 6.0.0
 proj_create_conversion_equidistant_cylindrical@Base 6.0.0
 proj_create_conversion_equidistant_cylindrical_spherical@Base 6.0.0
 proj_create_conversion_gall@Base 6.0.0
 proj_create_conversion_gauss_schreiber_transverse_mercator@Base 6.0.0
 proj_create_conversion_geostationary_satellite_sweep_x@Base 6.0.0
 proj_create_conversion_geostationary_satellite_sweep_y@Base 6.0.0
 proj_create_conversion_gnomonic@Base 6.0.0
 proj_create_conversion_goode_homolosine@Base 6.0.0
 proj_create_conversion_guam_projection@Base 6.0.0
 proj_create_conversion_hotine_oblique_mercator_two_point_natural_origin@Base 6.0.0
 proj_create_conversion_hotine_oblique_mercator_variant_a@Base 6.0.0
 proj_create_conversion_hotine_oblique_mercator_variant_b@Base 6.0.0
 proj_create_conversion_international_map_world_polyconic@Base 6.0.0
 proj_create_conversion_interrupted_goode_homolosine@Base 6.0.0
 proj_create_conversion_krovak@Base 6.0.0
 proj_create_conversion_krovak_north_oriented@Base 6.0.0
 proj_create_conversion_laborde_oblique_mercator@Base 6.0.0
 proj_create_conversion_lambert_azimuthal_equal_area@Base 6.0.0
 proj_create_conversion_lambert_conic_conformal_1sp@Base 6.0.0
 proj_create_conversion_lambert_conic_conformal_2sp@Base 6.0.0
 proj_create_conversion_lambert_conic_conformal_2sp_belgium@Base 6.0.0
 proj_create_conversion_lambert_conic_conformal_2sp_michigan@Base 6.0.0
 proj_create_conversion_lambert_cylindrical_equal_area@Base 6.0.0
 proj_create_conversion_lambert_cylindrical_equal_area_spherical@Base 6.0.0
 proj_create_conversion_mercator_variant_a@Base 6.0.0
 proj_create_conversion_mercator_variant_b@Base 6.0.0
 proj_create_conversion_miller_cylindrical@Base 6.0.0
 proj_create_conversion_mollweide@Base 6.0.0
 proj_create_conversion_new_zealand_mapping_grid@Base 6.0.0
 proj_create_conversion_oblique_stereographic@Base 6.0.0
 proj_create_conversion_orthographic@Base 6.0.0
 proj_create_conversion_polar_stereographic_variant_a@Base 6.0.0
 proj_create_conversion_polar_stereographic_variant_b@Base 6.0.0
 proj_create_conversion_pole_rotation_grib_convention@Base 6.3.0
 proj_create_conversion_popular_visualisation_pseudo_mercator@Base 6.0.0
 proj_create_conversion_quadrilateralized_spherical_cube@Base 6.0.0
 proj_create_conversion_robinson@Base 6.0.0
 proj_create_conversion_sinusoidal@Base 6.0.0
 proj_create_conversion_spherical_cross_track_height@Base 6.0.0
 proj_create_conversion_stereographic@Base 6.0.0
 proj_create_conversion_transverse_mercator@Base 6.0.0
 proj_create_conversion_transverse_mercator_south_oriented@Base 6.0.0
 proj_create_conversion_tunisia_mapping_grid@Base 6.0.0
 proj_create_conversion_two_point_equidistant@Base 6.0.0
 proj_create_conversion_utm@Base 6.0.0
 proj_create_conversion_van_der_grinten@Base 6.0.0
 proj_create_conversion_vertical_perspective@Base 6.3.0
 proj_create_conversion_wagner_i@Base 6.0.0
 proj_create_conversion_wagner_ii@Base 6.0.0
 proj_create_conversion_wagner_iii@Base 6.0.0
 proj_create_conversion_wagner_iv@Base 6.0.0
 proj_create_conversion_wagner_v@Base 6.0.0
 proj_create_conversion_wagner_vi@Base 6.0.0
 proj_create_conversion_wagner_vii@Base 6.0.0
 proj_create_crs_to_crs@Base 5.0.0
 proj_create_crs_to_crs_from_pj@Base 6.2.0
 proj_create_cs@Base 6.0.0
 proj_create_derived_geographic_crs@Base 6.3.0
 proj_create_ellipsoidal_2D_cs@Base 6.0.0
 proj_create_ellipsoidal_3D_cs@Base 6.3.0
 proj_create_engineering_crs@Base 6.0.0
 proj_create_from_database@Base 6.0.0
 proj_create_from_name@Base 6.0.0
 proj_create_from_wkt@Base 6.0.0
 proj_create_geocentric_crs@Base 6.0.0
 proj_create_geocentric_crs_from_datum@Base 6.0.0
 proj_create_geographic_crs@Base 6.0.0
 proj_create_geographic_crs_from_datum@Base 6.0.0
 proj_create_operation_factory_context@Base 6.0.0
 proj_create_operations@Base 6.0.0
 proj_create_projected_crs@Base 6.0.0
 proj_create_transformation@Base 6.0.0
 proj_create_vertical_crs@Base 6.0.0
 proj_create_vertical_crs_ex@Base 6.3.0
 proj_crs_alter_cs_angular_unit@Base 6.0.0
 proj_crs_alter_cs_linear_unit@Base 6.0.0
 proj_crs_alter_geodetic_crs@Base 6.0.0
 proj_crs_alter_parameters_linear_unit@Base 6.0.0
 proj_crs_create_bound_crs@Base 6.0.0
 proj_crs_create_bound_crs_to_WGS84@Base 6.0.0
 proj_crs_create_bound_vertical_crs@Base 6.3.0
 proj_crs_create_projected_3D_crs_from_2D@Base 6.2.1
 proj_crs_demote_to_2D@Base 6.3.0
 proj_crs_get_coordinate_system@Base 6.0.0
 proj_crs_get_coordoperation@Base 6.0.0
 proj_crs_get_datum@Base 6.0.0
 proj_crs_get_geodetic_crs@Base 6.0.0
 proj_crs_get_horizontal_datum@Base 6.0.0
 proj_crs_get_sub_crs@Base 6.0.0
 proj_crs_info_list_destroy@Base 6.0.0
 proj_crs_promote_to_3D@Base 6.2.1
 proj_cs_get_axis_count@Base 6.0.0
 proj_cs_get_axis_info@Base 6.0.0
 proj_cs_get_type@Base 6.0.0
 proj_destroy@Base 5.0.0
 proj_dmstor@Base 5.0.0
 proj_ellipsoid_get_parameters@Base 6.0.0
 proj_errno@Base 5.0.0
 proj_errno_reset@Base 5.0.0
 proj_errno_restore@Base 5.0.0
 proj_errno_set@Base 5.0.0
 proj_errno_string@Base 5.1.0
 proj_factors@Base 5.0.0
 proj_geod@Base 5.0.0
 proj_get_area_of_use@Base 6.0.0
 proj_get_authorities_from_database@Base 6.0.0
 proj_get_codes_from_database@Base 6.0.0
 proj_get_crs_info_list_from_database@Base 6.0.0
 proj_get_crs_list_parameters_create@Base 6.0.0
 proj_get_crs_list_parameters_destroy@Base 6.0.0
 proj_get_ellipsoid@Base 6.0.0
 proj_get_id_auth_name@Base 6.0.0
 proj_get_id_code@Base 6.0.0
 proj_get_name@Base 6.0.0
 proj_get_non_deprecated@Base 6.0.0
 proj_get_prime_meridian@Base 6.0.0
 proj_get_remarks@Base 6.2.0
 proj_get_scope@Base 6.2.0
 proj_get_source_crs@Base 6.0.0
 proj_get_target_crs@Base 6.0.0
 proj_get_type@Base 6.0.0
 proj_grid_get_info_from_database@Base 6.2.0
 proj_grid_info@Base 5.0.0
 proj_identify@Base 6.0.0
 proj_info@Base 5.0.0
 proj_init_info@Base 5.0.0
 proj_int_list_destroy@Base 6.0.0
 proj_is_crs@Base 6.0.0
 proj_is_deprecated@Base 6.0.0
 proj_is_derived_crs@Base 6.3.0
 proj_is_equivalent_to@Base 6.0.0
 proj_is_equivalent_to_with_ctx@Base 6.3.0
 proj_list_angular_units@Base 6.0.0
 proj_list_destroy@Base 6.0.0
 proj_list_ellps@Base 5.0.0
 proj_list_get@Base 6.0.0
 proj_list_get_count@Base 6.0.0
 proj_list_operations@Base 5.0.0
 proj_list_prime_meridians@Base 5.0.0
 proj_list_units@Base 5.0.0
 proj_log_func@Base 5.0.0
 proj_log_level@Base 5.0.0
 proj_lp_dist@Base 5.0.0
 proj_lpz_dist@Base 5.0.0
 proj_normalize_for_visualization@Base 6.1.0
 proj_operation_factory_context_destroy@Base 6.0.0
 proj_operation_factory_context_set_allow_use_intermediate_crs@Base 6.0.0
 proj_operation_factory_context_set_allowed_intermediate_crs@Base 6.0.0
 proj_operation_factory_context_set_area_of_interest@Base 6.0.0
 proj_operation_factory_context_set_crs_extent_use@Base 6.0.0
 proj_operation_factory_context_set_desired_accuracy@Base 6.0.0
 proj_operation_factory_context_set_discard_superseded@Base 6.2.0
 proj_operation_factory_context_set_grid_availability_use@Base 6.0.0
 proj_operation_factory_context_set_spatial_criterion@Base 6.0.0
 proj_operation_factory_context_set_use_proj_alternative_grid_names@Base 6.0.0
 proj_pj_info@Base 5.0.0
 proj_prime_meridian_get_parameters@Base 6.0.0
 proj_query_geodetic_crs_from_datum@Base 6.0.0
 proj_roundtrip@Base 5.0.0
 proj_rtodms@Base 5.0.0
 proj_string_list_destroy@Base 6.0.0
 proj_todeg@Base 5.0.0
 proj_torad@Base 5.0.0
 proj_trans@Base 5.0.0
 proj_trans_array@Base 5.0.0
 proj_trans_generic@Base 5.0.0
 proj_uom_get_info_from_database@Base 6.0.0
 proj_xy_dist@Base 5.0.0
 proj_xyz_dist@Base 5.0.0
